BL51 BANKED LINKER/LOCATER V5.12                                                        02/19/2014  16:34:22  PAGE 1


BL51 BANKED LINKER/LOCATER V5.12, INVOKED BY:
C:\KEIL\C51\BIN\BL51.EXE .\Obj\STARTUP.obj, .\Obj\main.obj, .\Obj\s6d0154.obj, .\Obj\serial.obj TO .\Obj\DisplayTerminal
>> TFT PRINT (.\Lst\DisplayTerminalTFT.m51) RAMSIZE (256)


MEMORY MODEL: COMPACT


INPUT MODULES INCLUDED:
  .\Obj\STARTUP.obj (?C_STARTUP)
  .\Obj\main.obj (MAIN)
  .\Obj\s6d0154.obj (S6D0154)
  .\Obj\serial.obj (SERIAL)
  C:\KEIL\C51\LIB\C51C.LIB (?C_INIT)
  C:\KEIL\C51\LIB\C51C.LIB (?C?COPY)
  C:\KEIL\C51\LIB\C51C.LIB (?C?CLDPTR)
  C:\KEIL\C51\LIB\C51C.LIB (?C?IMUL)
  C:\KEIL\C51\LIB\C51C.LIB (?C?OFFXADD)


LINK MAP OF MODULE:  .\Obj\DisplayTerminalTFT (?C_STARTUP)


            TYPE    BASE      LENGTH    RELOCATION   SEGMENT NAME
            -----------------------------------------------------

            * * * * * * *   D A T A   M E M O R Y   * * * * * * *
            REG     0000H     0008H     ABSOLUTE     "REG BANK 0"
            IDATA   0008H     0001H     UNIT         ?STACK

            * * * * * * *  X D A T A   M E M O R Y  * * * * * * *
            XDATA   0000H     0004H     INPAGE       ?PD?DISPLAY_RED?S6D0154
            XDATA   0004H     0002H     INPAGE       ?PD?DISPLAY_GREEN?S6D0154
            XDATA   0006H     0002H     INPAGE       ?PD?DISPLAY_BLUE?S6D0154
            XDATA   0008H     0004H     INPAGE       ?PD?DISPLAY_BLACK?S6D0154
            XDATA   000CH     0012H     INPAGE       ?PD?S6D0154
            XDATA   001EH     0038H     INPAGE       ?PD?SERIAL
            XDATA   0056H     003AH     INPAGE       _PDATA_GROUP_

            * * * * * * *   C O D E   M E M O R Y   * * * * * * *
            CODE    0000H     0003H     ABSOLUTE     
            CODE    0003H     0004H     UNIT         ?PR?SOFT_RESET_TO_ISP_MONITOR?SERIAL
                    0007H     0004H                  *** GAP ***
            CODE    000BH     0003H     ABSOLUTE     
            CODE    000EH     0015H     UNIT         ?PR?MAIN?MAIN
            CODE    0023H     0003H     ABSOLUTE     
            CODE    0026H     9500H     UNIT         ?CO?S6D0154
            CODE    9526H     0792H     UNIT         ?PR?DISPLAY_RUNNING_REFRESH?S6D0154
            CODE    9CB8H     04EBH     UNIT         ?PR?DISPLAY_RUNNING?S6D0154
            CODE    A1A3H     0225H     UNIT         ?PR?LCD_INIT?S6D0154
            CODE    A3C8H     01B0H     UNIT         ?PR?_CHINESECHAR?S6D0154
            CODE    A578H     018CH     UNIT         ?PR?DISPLAY_RUNNING3?S6D0154
            CODE    A704H     018BH     UNIT         ?PR?DISPLAY_RUNNING1?S6D0154
            CODE    A88FH     018BH     UNIT         ?PR?DISPLAY_RUNNING2?S6D0154
            CODE    AA1AH     0141H     UNIT         ?PR?_LCD_SHOWCHAR?S6D0154
            CODE    AB5BH     012DH     UNIT         ?C?LIB_CODE
            CODE    AC88H     009FH     UNIT         ?PR?DISPLAY_LODING?S6D0154
            CODE    AD27H     009CH     UNIT         ?PR?DISPLAY_BLACK?S6D0154
BL51 BANKED LINKER/LOCATER V5.12                                                      02/19/2014  16:34:22  PAGE 2


            CODE    ADC3H     008CH     UNIT         ?C_C51STARTUP
            CODE    AE4FH     007CH     UNIT         ?PR?_CHINESESTRING?S6D0154
            CODE    AECBH     007BH     UNIT         ?PR?_LCD_SHOWSTRING?S6D0154
            CODE    AF46H     0072H     UNIT         ?PR?_ADDRESS_SET?S6D0154
            CODE    AFB8H     006BH     UNIT         ?PR?UART_INTERRUPT_RECEIVE?SERIAL
            CODE    B023H     0052H     UNIT         ?C_INITSEG
            CODE    B075H     004FH     UNIT         ?PR?DISPLAY_BLUE?S6D0154
            CODE    B0C4H     0044H     UNIT         ?PR?DISPLAY_RED?S6D0154
            CODE    B108H     003AH     UNIT         ?PR?DISPLAY_LOADING_IMAGE?S6D0154
            CODE    B142H     003AH     UNIT         ?PR?DISPLAY_RUNNING_IMAGE?S6D0154
            CODE    B17CH     0039H     UNIT         ?PR?DISPLAY_GREEN?S6D0154
            CODE    B1B5H     0033H     UNIT         ?PR?DISPLAY_WHITE?S6D0154
            CODE    B1E8H     0021H     UNIT         ?PR?_DELAYMS?SERIAL
            CODE    B209H     001FH     UNIT         ?PR?INITSYS?MAIN
            CODE    B228H     0019H     UNIT         ?PR?_WRITE_DATA?S6D0154
            CODE    B241H     0018H     UNIT         ?PR?_WRITE_COMD?S6D0154
            CODE    B259H     0012H     UNIT         ?PR?_SERIALSEND?SERIAL
            CODE    B26BH     000EH     UNIT         ?PR?_LCD_WRITE_DATA?S6D0154
            CODE    B279H     000BH     UNIT         ?PR?TIME0?MAIN
            CODE    B284H     000BH     UNIT         ?PR?_LCD_WRIT_BUS?S6D0154
            CODE    B28FH     0009H     UNIT         ?PR?_LCD_WRITE_COM?S6D0154



OVERLAY MAP OF MODULE:   .\Obj\DisplayTerminalTFT (?C_STARTUP)


SEGMENT                                        PDATA_GROUP
  +--> CALLED SEGMENT                        START    LENGTH
------------------------------------------------------------
?C_C51STARTUP                                -----    -----
  +--> ?PR?MAIN?MAIN
  +--> ?C_INITSEG

?PR?MAIN?MAIN                                -----    -----
  +--> ?PR?INITSYS?MAIN
  +--> ?PR?LCD_INIT?S6D0154
  +--> ?PR?DISPLAY_RUNNING?S6D0154
  +--> ?PR?DISPLAY_RUNNING_REFRESH?S6D0154
  +--> ?PR?_DELAYMS?SERIAL

?PR?LCD_INIT?S6D0154                         -----    -----
  +--> ?PR?_DELAYMS?SERIAL
  +--> ?PR?_LCD_WRITE_COM?S6D0154
  +--> ?PR?_LCD_WRITE_DATA?S6D0154

?PR?_LCD_WRITE_COM?S6D0154                   -----    -----
  +--> ?PR?_LCD_WRIT_BUS?S6D0154

?PR?_LCD_WRITE_DATA?S6D0154                  -----    -----
  +--> ?PR?_LCD_WRIT_BUS?S6D0154

?PR?DISPLAY_RUNNING?S6D0154                  -----    -----
  +--> ?PR?DISPLAY_WHITE?S6D0154
  +--> ?PR?DISPLAY_RUNNING_IMAGE?S6D0154
  +--> ?CO?S6D0154
  +--> ?PR?_CHINESESTRING?S6D0154
BL51 BANKED LINKER/LOCATER V5.12                                                      02/19/2014  16:34:22  PAGE 3


  +--> ?PR?_LCD_SHOWSTRING?S6D0154

?PR?DISPLAY_WHITE?S6D0154                    0056H    0002H
  +--> ?PR?_ADDRESS_SET?S6D0154
  +--> ?PR?_WRITE_DATA?S6D0154

?PR?_ADDRESS_SET?S6D0154                     0088H    0008H
  +--> ?PR?_LCD_WRITE_COM?S6D0154
  +--> ?PR?_LCD_WRITE_DATA?S6D0154

?PR?DISPLAY_RUNNING_IMAGE?S6D0154            -----    -----
  +--> ?PR?_ADDRESS_SET?S6D0154
  +--> ?CO?S6D0154

?PR?_CHINESESTRING?S6D0154                   0056H    000DH
  +--> ?PR?_CHINESECHAR?S6D0154

?PR?_CHINESECHAR?S6D0154                     0063H    0025H
  +--> ?CO?S6D0154
  +--> ?PR?_ADDRESS_SET?S6D0154
  +--> ?PR?_LCD_WRITE_DATA?S6D0154

?PR?_LCD_SHOWSTRING?S6D0154                  0056H    000DH
  +--> ?PR?_LCD_SHOWCHAR?S6D0154

?PR?_LCD_SHOWCHAR?S6D0154                    0063H    0013H
  +--> ?PR?_ADDRESS_SET?S6D0154
  +--> ?CO?S6D0154
  +--> ?PR?_LCD_WRITE_DATA?S6D0154

?PR?DISPLAY_RUNNING_REFRESH?S6D0154          -----    -----
  +--> ?PR?_LCD_SHOWCHAR?S6D0154
  +--> ?CO?S6D0154
  +--> ?PR?_CHINESESTRING?S6D0154

*** NEW ROOT ***************************************************

?PR?UART_INTERRUPT_RECEIVE?SERIAL            -----    -----
  +--> ?PR?_DELAYMS?SERIAL
  +--> ?PR?SOFT_RESET_TO_ISP_MONITOR?SERIAL



SYMBOL TABLE OF MODULE:  .\Obj\DisplayTerminalTFT (?C_STARTUP)

  VALUE           TYPE          NAME
  ----------------------------------

  -------         MODULE        ?C_STARTUP
  C:ADC3H         SEGMENT       ?C_C51STARTUP
  I:0008H         SEGMENT       ?STACK
  C:0000H         PUBLIC        ?C_STARTUP
  D:00E0H         SYMBOL        ACC
  D:00F0H         SYMBOL        B
  D:0083H         SYMBOL        DPH
  D:0082H         SYMBOL        DPL
  N:0000H         SYMBOL        IBPSTACK
BL51 BANKED LINKER/LOCATER V5.12                                                      02/19/2014  16:34:22  PAGE 4


  N:0100H         SYMBOL        IBPSTACKTOP
  N:0080H         SYMBOL        IDATALEN
  C:ADC6H         SYMBOL        IDATALOOP
  N:0000H         SYMBOL        PBPSTACK
  N:0000H         SYMBOL        PBPSTACKTOP
  N:0000H         SYMBOL        PDATALEN
  N:0000H         SYMBOL        PDATASTART
  N:0000H         SYMBOL        PPAGE
  N:0000H         SYMBOL        PPAGEENABLE
  D:00A0H         SYMBOL        PPAGE_SFR
  D:0081H         SYMBOL        SP
  C:ADC3H         SYMBOL        STARTUP1
  N:0000H         SYMBOL        XBPSTACK
  N:0000H         SYMBOL        XBPSTACKTOP
  N:0000H         SYMBOL        XDATALEN
  N:0000H         SYMBOL        XDATASTART
  C:0000H         LINE#         92
  C:ADC3H         LINE#         99
  C:ADC5H         LINE#         100
  C:ADC6H         LINE#         101
  C:ADC7H         LINE#         102
  C:ADC9H         LINE#         151
  C:ADCCH         LINE#         155
  -------         ENDMOD        ?C_STARTUP

  -------         MODULE        MAIN
  C:0000H         SYMBOL        _ICE_DUMMY_
  D:0090H         PUBLIC        P1
  B:00A8H.7       PUBLIC        EA
  D:00A8H         PUBLIC        IE
  B:00A8H.4       PUBLIC        ES
  D:00B8H         PUBLIC        IP
  D:00D8H         PUBLIC        CCON
  C:000EH         PUBLIC        main
  D:0087H         PUBLIC        PCON
  D:0098H         PUBLIC        SCON
  D:0089H         PUBLIC        TMOD
  D:0088H         PUBLIC        TCON
  B:00A8H.1       PUBLIC        ET0
  B:00A8H.3       PUBLIC        ET1
  D:008CH         PUBLIC        TH0
  D:008DH         PUBLIC        TH1
  D:008AH         PUBLIC        TL0
  D:008BH         PUBLIC        TL1
  B:0088H.4       PUBLIC        TR0
  C:B209H         PUBLIC        InitSys
  B:0088H.6       PUBLIC        TR1
  C:B279H         PUBLIC        time0
  D:00D0H         PUBLIC        PSW
  -------         PROC          TIME0
  C:B279H         LINE#         22
  C:B279H         LINE#         24
  C:B27BH         LINE#         25
  C:B27EH         LINE#         26
  C:B281H         LINE#         27
  C:B283H         LINE#         28
  -------         ENDPROC       TIME0
BL51 BANKED LINKER/LOCATER V5.12                                                      02/19/2014  16:34:22  PAGE 5


  -------         PROC          INITSYS
  C:B209H         LINE#         31
  C:B209H         LINE#         32
  C:B209H         LINE#         33
  C:B20BH         LINE#         34
  C:B20EH         LINE#         35
  C:B211H         LINE#         36
  C:B214H         LINE#         37
  C:B217H         LINE#         38
  C:B21AH         LINE#         39
  C:B21DH         LINE#         40
  C:B21FH         LINE#         41
  C:B221H         LINE#         42
  C:B223H         LINE#         43
  C:B225H         LINE#         44
  C:B227H         LINE#         45
  -------         ENDPROC       INITSYS
  -------         PROC          MAIN
  C:000EH         LINE#         48
  C:000EH         LINE#         49
  C:000EH         LINE#         50
  C:0011H         LINE#         51
  C:0014H         LINE#         52
  C:0017H         LINE#         53
  C:0017H         LINE#         54
  C:0017H         LINE#         55
  C:001AH         LINE#         56
  C:0021H         LINE#         58
  -------         ENDPROC       MAIN
  -------         ENDMOD        MAIN

  -------         MODULE        S6D0154
  C:B228H         SEGMENT       ?PR?_WRITE_DATA?S6D0154
  C:B241H         SEGMENT       ?PR?_WRITE_COMD?S6D0154
  C:B0C4H         SEGMENT       ?PR?DISPLAY_RED?S6D0154
  X:0000H         SEGMENT       ?PD?DISPLAY_RED?S6D0154
  C:B17CH         SEGMENT       ?PR?DISPLAY_GREEN?S6D0154
  X:0004H         SEGMENT       ?PD?DISPLAY_GREEN?S6D0154
  C:B075H         SEGMENT       ?PR?DISPLAY_BLUE?S6D0154
  X:0006H         SEGMENT       ?PD?DISPLAY_BLUE?S6D0154
  C:B1B5H         SEGMENT       ?PR?DISPLAY_WHITE?S6D0154
  X:0056H         SEGMENT       ?PD?DISPLAY_WHITE?S6D0154
  C:AD27H         SEGMENT       ?PR?DISPLAY_BLACK?S6D0154
  X:0008H         SEGMENT       ?PD?DISPLAY_BLACK?S6D0154
  C:AF46H         SEGMENT       ?PR?_ADDRESS_SET?S6D0154
  X:0088H         SEGMENT       ?PD?_ADDRESS_SET?S6D0154
  C:A3C8H         SEGMENT       ?PR?_CHINESECHAR?S6D0154
  X:0063H         SEGMENT       ?PD?_CHINESECHAR?S6D0154
  C:AE4FH         SEGMENT       ?PR?_CHINESESTRING?S6D0154
  X:0056H         SEGMENT       ?PD?_CHINESESTRING?S6D0154
  C:AA1AH         SEGMENT       ?PR?_LCD_SHOWCHAR?S6D0154
  X:0063H         SEGMENT       ?PD?_LCD_SHOWCHAR?S6D0154
  C:AECBH         SEGMENT       ?PR?_LCD_SHOWSTRING?S6D0154
  X:0056H         SEGMENT       ?PD?_LCD_SHOWSTRING?S6D0154
  C:AC88H         SEGMENT       ?PR?DISPLAY_LODING?S6D0154
  C:B108H         SEGMENT       ?PR?DISPLAY_LOADING_IMAGE?S6D0154
  C:9CB8H         SEGMENT       ?PR?DISPLAY_RUNNING?S6D0154
BL51 BANKED LINKER/LOCATER V5.12                                                      02/19/2014  16:34:22  PAGE 6


  C:9526H         SEGMENT       ?PR?DISPLAY_RUNNING_REFRESH?S6D0154
  C:A704H         SEGMENT       ?PR?DISPLAY_RUNNING1?S6D0154
  C:A88FH         SEGMENT       ?PR?DISPLAY_RUNNING2?S6D0154
  C:A578H         SEGMENT       ?PR?DISPLAY_RUNNING3?S6D0154
  C:B142H         SEGMENT       ?PR?DISPLAY_RUNNING_IMAGE?S6D0154
  C:B284H         SEGMENT       ?PR?_LCD_WRIT_BUS?S6D0154
  C:B28FH         SEGMENT       ?PR?_LCD_WRITE_COM?S6D0154
  C:B26BH         SEGMENT       ?PR?_LCD_WRITE_DATA?S6D0154
  C:A1A3H         SEGMENT       ?PR?LCD_INIT?S6D0154
  C:0026H         SEGMENT       ?CO?S6D0154
  C:B023H         SEGMENT       ?C_INITSEG
  X:000CH         SEGMENT       ?PD?S6D0154
  X:0088H         PUBLIC        ?_ADDRESS_SET?BYTE
  X:0063H         PUBLIC        ?_CHINESECHAR?BYTE
  X:0056H         PUBLIC        ?_CHINESESTRING?BYTE
  X:0063H         PUBLIC        ?_LCD_SHOWCHAR?BYTE
  X:0056H         PUBLIC        ?_LCD_SHOWSTRING?BYTE
  X:000CH         PUBLIC        COLORS
  C:AD27H         PUBLIC        DISPLAY_BLACK
  C:B075H         PUBLIC        DISPLAY_BLUE
  C:B17CH         PUBLIC        DISPLAY_GREEN
  C:B108H         PUBLIC        DISPLAY_LOADING_IMAGE
  C:AC88H         PUBLIC        DISPLAY_LODING
  C:B0C4H         PUBLIC        DISPLAY_RED
  C:9CB8H         PUBLIC        DISPLAY_RUNNING
  C:A704H         PUBLIC        DISPLAY_RUNNING1
  C:A88FH         PUBLIC        DISPLAY_RUNNING2
  C:A578H         PUBLIC        DISPLAY_RUNNING3
  C:B142H         PUBLIC        DISPLAY_RUNNING_IMAGE
  C:9526H         PUBLIC        DISPLAY_RUNNING_REFRESH
  C:B1B5H         PUBLIC        DISPLAY_WHITE
  C:831DH         PUBLIC        FONT16X24
  C:82BDH         PUBLIC        HZ16
  C:7855H         PUBLIC        HZ24
  C:7645H         PUBLIC        HZ32
  C:A1A3H         PUBLIC        LCD_INIT
  C:0205H         PUBLIC        RASPBERRYPILOGOBIG
  C:5ED5H         PUBLIC        RASPBERRYPILOGOSMALL
  C:AF5AH         PUBLIC        _ADDRESS_SET
  C:A3D2H         PUBLIC        _CHINESECHAR
  C:AE59H         PUBLIC        _CHINESESTRING
  C:AA21H         PUBLIC        _LCD_SHOWCHAR
  C:AED6H         PUBLIC        _LCD_SHOWSTRING
  C:B293H         PUBLIC        _LCD_WRITE_COM
  C:B274H         PUBLIC        _LCD_WRITE_DATA
  C:B284H         PUBLIC        _LCD_WRIT_BUS
  C:B248H         PUBLIC        _WRITE_COMD
  C:B230H         PUBLIC        _WRITE_DATA
  C:B0D8H         SYMBOL        ?C0003
  C:B105H         SYMBOL        ?C0004
  C:B0EFH         SYMBOL        ?C0005
  C:B0DBH         SYMBOL        ?C0006
  C:B187H         SYMBOL        ?C0010
  C:B1B2H         SYMBOL        ?C0011
  C:B19CH         SYMBOL        ?C0012
  C:B18AH         SYMBOL        ?C0013
  C:B093H         SYMBOL        ?C0017
BL51 BANKED LINKER/LOCATER V5.12                                                      02/19/2014  16:34:22  PAGE 7


  C:B0C1H         SYMBOL        ?C0018
  C:B0ABH         SYMBOL        ?C0019
  C:B096H         SYMBOL        ?C0020
  C:B1BEH         SYMBOL        ?C0024
  C:B1E5H         SYMBOL        ?C0025
  C:B1CFH         SYMBOL        ?C0026
  C:B1C1H         SYMBOL        ?C0027
  C:AD2DH         SYMBOL        ?C0031
  C:AD3BH         SYMBOL        ?C0032
  C:AD3EH         SYMBOL        ?C0034
  C:ADAFH         SYMBOL        ?C0035
  C:ADA0H         SYMBOL        ?C0036
  C:AD44H         SYMBOL        ?C0037
  C:AD5DH         SYMBOL        ?C0038
  C:AD63H         SYMBOL        ?C0040
  C:AD81H         SYMBOL        ?C0041
  C:AD87H         SYMBOL        ?C0043
  C:ADB2H         SYMBOL        ?C0046
  C:ADC0H         SYMBOL        ?C0047
  C:A42BH         SYMBOL        ?C0051
  C:A469H         SYMBOL        ?C0052
  C:A44EH         SYMBOL        ?C0053
  C:A4CDH         SYMBOL        ?C0056
  C:A575H         SYMBOL        ?C0057
  C:A567H         SYMBOL        ?C0058
  C:A519H         SYMBOL        ?C0059
  C:A511H         SYMBOL        ?C0060
  C:A521H         SYMBOL        ?C0062
  C:A527H         SYMBOL        ?C0063
  C:A55AH         SYMBOL        ?C0065
  C:A555H         SYMBOL        ?C0066
  C:AE6CH         SYMBOL        ?C0069
  C:AECAH         SYMBOL        ?C0071
  C:AA45H         SYMBOL        ?C0072
  C:AA45H         SYMBOL        ?C0073
  C:AA7FH         SYMBOL        ?C0075
  C:AB5AH         SYMBOL        ?C0077
  C:AADFH         SYMBOL        ?C0078
  C:AB58H         SYMBOL        ?C0079
  C:AB51H         SYMBOL        ?C0080
  C:AB1CH         SYMBOL        ?C0081
  C:AB1CH         SYMBOL        ?C0082
  C:AB20H         SYMBOL        ?C0084
  C:AB34H         SYMBOL        ?C0087
  C:AB40H         SYMBOL        ?C0088
  C:AEE9H         SYMBOL        ?C0089
  C:AF45H         SYMBOL        ?C0091
  C:B128H         SYMBOL        ?C0093
  C:B13FH         SYMBOL        ?C0094
  C:B13AH         SYMBOL        ?C0095
  C:B12AH         SYMBOL        ?C0096
  C:96B4H         SYMBOL        ?C0101
  C:96E1H         SYMBOL        ?C0102
  C:970EH         SYMBOL        ?C0103
  C:9741H         SYMBOL        ?C0104
  C:B162H         SYMBOL        ?C0109
  C:B179H         SYMBOL        ?C0110
BL51 BANKED LINKER/LOCATER V5.12                                                      02/19/2014  16:34:22  PAGE 8


  C:B174H         SYMBOL        ?C0111
  C:B164H         SYMBOL        ?C0112
  C:B0E9H         SYMBOL        ?C0120
  C:B196H         SYMBOL        ?C0121
  C:B0A5H         SYMBOL        ?C0122
  C:B1C9H         SYMBOL        ?C0123
  C:AD35H         SYMBOL        ?C0124
  C:ADA5H         SYMBOL        ?C0125
  C:ADADH         SYMBOL        ?C0126
  C:ADBAH         SYMBOL        ?C0127
  C:A507H         SYMBOL        ?C0128
  C:A547H         SYMBOL        ?C0129
  C:A54CH         SYMBOL        ?C0130
  C:AAD2H         SYMBOL        ?C0131
  C:AAF1H         SYMBOL        ?C0132
  C:A557H         SYMBOL        ?C0133
  C:A51BH         SYMBOL        ?C0134
  C:AB3DH         SYMBOL        ?C0135
  C:96D7H         SYMBOL        ?C0136
  C:9731H         SYMBOL        ?C0137
  X:0008H         SYMBOL        ?DISPLAY_BLACK?BYTE
  X:0006H         SYMBOL        ?DISPLAY_BLUE?BYTE
  X:0004H         SYMBOL        ?DISPLAY_GREEN?BYTE
  X:0000H         SYMBOL        ?DISPLAY_RED?BYTE
  X:0056H         SYMBOL        ?DISPLAY_WHITE?BYTE
  C:0026H         SYMBOL        ?SC_0
  C:0031H         SYMBOL        ?SC_11
  C:0099H         SYMBOL        ?SC_115
  C:00ADH         SYMBOL        ?SC_135
  C:0034H         SYMBOL        ?SC_14
  C:00C1H         SYMBOL        ?SC_155
  C:00D5H         SYMBOL        ?SC_175
  C:0039H         SYMBOL        ?SC_19
  C:00E9H         SYMBOL        ?SC_195
  C:0028H         SYMBOL        ?SC_2
  C:00F9H         SYMBOL        ?SC_211
  C:0109H         SYMBOL        ?SC_227
  C:003DH         SYMBOL        ?SC_23
  C:0119H         SYMBOL        ?SC_243
  C:0040H         SYMBOL        ?SC_26
  C:012DH         SYMBOL        ?SC_263
  C:0141H         SYMBOL        ?SC_283
  C:0043H         SYMBOL        ?SC_29
  C:0155H         SYMBOL        ?SC_303
  C:0046H         SYMBOL        ?SC_32
  C:0169H         SYMBOL        ?SC_323
  C:017DH         SYMBOL        ?SC_343
  C:0049H         SYMBOL        ?SC_35
  C:018DH         SYMBOL        ?SC_359
  C:019EH         SYMBOL        ?SC_376
  C:004CH         SYMBOL        ?SC_38
  C:01AFH         SYMBOL        ?SC_393
  C:002AH         SYMBOL        ?SC_4
  C:01C4H         SYMBOL        ?SC_414
  C:0050H         SYMBOL        ?SC_42
  C:01D9H         SYMBOL        ?SC_435
  C:0053H         SYMBOL        ?SC_45
BL51 BANKED LINKER/LOCATER V5.12                                                      02/19/2014  16:34:22  PAGE 9


  C:01EEH         SYMBOL        ?SC_456
  C:0203H         SYMBOL        ?SC_477
  C:0056H         SYMBOL        ?SC_48
  C:0059H         SYMBOL        ?SC_51
  C:005CH         SYMBOL        ?SC_54
  C:002CH         SYMBOL        ?SC_6
  C:006CH         SYMBOL        ?SC_70
  C:0075H         SYMBOL        ?SC_79
  C:002FH         SYMBOL        ?SC_9
  C:0085H         SYMBOL        ?SC_95
  B:00D0H.6       SYMBOL        AC
  D:00E0H         SYMBOL        ACC
  D:00BCH         SYMBOL        ADC_CONTR
  D:00BDH         SYMBOL        ADC_RES
  D:00BEH         SYMBOL        ADC_RESL
  D:008EH         SYMBOL        AUXR
  D:00A2H         SYMBOL        AUXR1
  D:00F0H         SYMBOL        B
  X:006BH         SYMBOL        BK_COLOR?1086
  X:005EH         SYMBOL        BK_COLOR?1198
  X:006BH         SYMBOL        BK_COLOR?864
  X:005EH         SYMBOL        BK_COLOR?980
  D:009CH         SYMBOL        BRT
  D:00A1H         SYMBOL        BUS_SPEED
  X:006FH         SYMBOL        BYTES?1089
  X:006DH         SYMBOL        C?865
  D:00FAH         SYMBOL        CCAP0H
  D:00EAH         SYMBOL        CCAP0L
  D:00FBH         SYMBOL        CCAP1H
  D:00EBH         SYMBOL        CCAP1L
  D:00DAH         SYMBOL        CCAPM0
  D:00DBH         SYMBOL        CCAPM1
  B:00D8H.0       SYMBOL        CCF0
  B:00D8H.1       SYMBOL        CCF1
  D:00D8H         SYMBOL        CCON
  B:00D8H.7       SYMBOL        CF
  D:00F9H         SYMBOL        CH
  X:006DH         SYMBOL        CH?1087
  X:0074H         SYMBOL        CHAR_H?1093
  X:0072H         SYMBOL        CHAR_W?1092
  D:00E9H         SYMBOL        CL
  D:0097H         SYMBOL        CLK_DIV
  D:00D9H         SYMBOL        CMOD
  B:00D8H.6       SYMBOL        CR
  B:00D0H.7       SYMBOL        CY
  D:0083H         SYMBOL        DPH
  D:0082H         SYMBOL        DPL
  X:006EH         SYMBOL        E?866
  B:00A8H.7       SYMBOL        EA
  B:00A8H.5       SYMBOL        EADC
  X:0074H         SYMBOL        ED?869
  B:00A8H.6       SYMBOL        ELVD
  B:00A8H.4       SYMBOL        ES
  B:00A8H.1       SYMBOL        ET0
  B:00A8H.3       SYMBOL        ET1
  B:00A8H.0       SYMBOL        EX0
  B:00A8H.2       SYMBOL        EX1
BL51 BANKED LINKER/LOCATER V5.12                                                      02/19/2014  16:34:22  PAGE 10


  B:00D0H.5       SYMBOL        F0
  X:007FH         SYMBOL        FONTTABLE?875
  X:0069H         SYMBOL        FOR_COLOR?1085
  X:005CH         SYMBOL        FOR_COLOR?1197
  X:0069H         SYMBOL        FOR_COLOR?863
  X:005CH         SYMBOL        FOR_COLOR?979
  X:0000H         SYMBOL        I?244
  X:0004H         SYMBOL        I?347
  X:0006H         SYMBOL        I?449
  X:0056H         SYMBOL        I?551
  X:0070H         SYMBOL        I?867
  D:00C3H         SYMBOL        IAP_ADDRH
  D:00C4H         SYMBOL        IAP_ADDRL
  D:00C5H         SYMBOL        IAP_CMD
  D:00C7H         SYMBOL        IAP_CONTR
  D:00C2H         SYMBOL        IAP_DATA
  D:00C6H         SYMBOL        IAP_TRIG
  D:00A8H         SYMBOL        IE
  B:0088H.1       SYMBOL        IE0
  B:0088H.3       SYMBOL        IE1
  D:00AFH         SYMBOL        IE2
  D:00B8H         SYMBOL        IP
  D:00B5H         SYMBOL        IP2
  D:00B7H         SYMBOL        IPH
  D:00B6H         SYMBOL        IPH2
  B:0088H.0       SYMBOL        IT0
  B:0088H.2       SYMBOL        IT1
  X:0008H         SYMBOL        J?654
  X:0072H         SYMBOL        J?868
  X:0002H         SYMBOL        K?246
  X:000AH         SYMBOL        K?655
  C:AECBH         SYMBOL        L?0138
  C:AECCH         SYMBOL        L?0139
  C:AECFH         SYMBOL        L?0140
  C:AA1AH         SYMBOL        L?0141
  C:AE4FH         SYMBOL        L?0142
  C:AE53H         SYMBOL        L?0143
  C:AE55H         SYMBOL        L?0144
  C:AF46H         SYMBOL        L?0145
  C:AF46H         SYMBOL        L?0146
  C:AF4AH         SYMBOL        L?0147
  C:B26BH         SYMBOL        L?0148
  C:B26DH         SYMBOL        L?0149
  C:B228H         SYMBOL        L?0150
  C:B228H         SYMBOL        L?0151
  C:B22CH         SYMBOL        L?0152
  C:A3C8H         SYMBOL        L?0153
  C:A3CCH         SYMBOL        L?0154
  C:B28FH         SYMBOL        L?0155
  C:B28FH         SYMBOL        L?0156
  C:B241H         SYMBOL        L?0157
  C:B243H         SYMBOL        L?0158
  B:0090H.0       SYMBOL        LCD_CS
  B:0090H.1       SYMBOL        LCD_DC
  B:0090H.3       SYMBOL        LCD_RD
  B:0090H.4       SYMBOL        LCD_RST
  B:0090H.2       SYMBOL        LCD_WR
BL51 BANKED LINKER/LOCATER V5.12                                                      02/19/2014  16:34:22  PAGE 11


  X:007AH         SYMBOL        NBYTES?872
  X:0076H         SYMBOL        NCOLS?870
  X:0078H         SYMBOL        NROWS?871
  B:00D0H.2       SYMBOL        OV
  B:00D0H.0       SYMBOL        P
  D:0080H         SYMBOL        P0
  D:0094H         SYMBOL        P0M0
  D:0093H         SYMBOL        P0M1
  D:0090H         SYMBOL        P1
  D:009DH         SYMBOL        P1ASF
  D:0092H         SYMBOL        P1M0
  D:0091H         SYMBOL        P1M1
  D:00A0H         SYMBOL        P2
  D:0096H         SYMBOL        P2M0
  D:0095H         SYMBOL        P2M1
  D:00B0H         SYMBOL        P3
  D:00B2H         SYMBOL        P3M0
  D:00B1H         SYMBOL        P3M1
  D:00C0H         SYMBOL        P4
  D:00B4H         SYMBOL        P4M0
  D:00B3H         SYMBOL        P4M1
  D:00BBH         SYMBOL        P4SW
  D:00C8H         SYMBOL        P5
  D:00CAH         SYMBOL        P5M0
  D:00C9H         SYMBOL        P5M1
  X:0060H         SYMBOL        P?1199
  X:0060H         SYMBOL        P?981
  B:00B8H.5       SYMBOL        PADC
  D:00F2H         SYMBOL        PCA_PWM0
  D:00F3H         SYMBOL        PCA_PWM1
  X:007CH         SYMBOL        PCHAR?874
  D:0087H         SYMBOL        PCON
  B:00B8H.6       SYMBOL        PLVD
  X:0070H         SYMBOL        POS?1090
  B:00B8H.7       SYMBOL        PPCA
  B:00B8H.4       SYMBOL        PS
  D:00D0H         SYMBOL        PSW
  B:00B8H.1       SYMBOL        PT0
  B:00B8H.3       SYMBOL        PT1
  B:00B8H.0       SYMBOL        PX0
  B:00B8H.2       SYMBOL        PX1
  B:0098H.2       SYMBOL        RB8
  B:0098H.4       SYMBOL        REN
  B:0098H.0       SYMBOL        RI
  B:00D0H.3       SYMBOL        RS0
  B:00D0H.4       SYMBOL        RS1
  D:009BH         SYMBOL        S2BUF
  D:009AH         SYMBOL        S2CON
  N:0000H         SYMBOL        S6D0154
  D:00A9H         SYMBOL        SADDR
  D:00B9H         SYMBOL        SADEN
  D:0099H         SYMBOL        SBUF
  D:0098H         SYMBOL        SCON
  X:0067H         SYMBOL        SIZE?1084
  X:005AH         SYMBOL        SIZE?1196
  X:0067H         SYMBOL        SIZE?862
  X:005AH         SYMBOL        SIZE?978
BL51 BANKED LINKER/LOCATER V5.12                                                      02/19/2014  16:34:22  PAGE 12


  B:0098H.7       SYMBOL        SM0
  B:0098H.6       SYMBOL        SM1
  B:0098H.5       SYMBOL        SM2
  D:0081H         SYMBOL        SP
  D:00CEH         SYMBOL        SPCTL
  D:00CFH         SYMBOL        SPDAT
  D:00CDH         SYMBOL        SPSTAT
  X:0071H         SYMBOL        T?1091
  B:0098H.3       SYMBOL        TB8
  D:0088H         SYMBOL        TCON
  X:006EH         SYMBOL        TEMP?1088
  B:0088H.5       SYMBOL        TF0
  B:0088H.7       SYMBOL        TF1
  D:008CH         SYMBOL        TH0
  D:008DH         SYMBOL        TH1
  B:0098H.1       SYMBOL        TI
  D:008AH         SYMBOL        TL0
  D:008BH         SYMBOL        TL1
  D:0089H         SYMBOL        TMOD
  B:0088H.4       SYMBOL        TR0
  B:0088H.6       SYMBOL        TR1
  D:008FH         SYMBOL        WAKE_CLKO
  D:00C1H         SYMBOL        WDT_CONTR
  X:0088H         SYMBOL        X1?756
  X:008CH         SYMBOL        X2?758
  X:0063H         SYMBOL        X?1082
  X:0056H         SYMBOL        X?1194
  X:0063H         SYMBOL        X?860
  X:0056H         SYMBOL        X?976
  X:008AH         SYMBOL        Y1?757
  X:008EH         SYMBOL        Y2?759
  X:0065H         SYMBOL        Y?1083
  X:0058H         SYMBOL        Y?1195
  X:0065H         SYMBOL        Y?861
  X:0058H         SYMBOL        Y?977
  C:951DH         SYMBOL        _?IX1000
  C:B228H         LINE#         36227
  C:B22AH         LINE#         36228
  C:B22CH         LINE#         36230
  C:B22EH         LINE#         36231
  C:B230H         LINE#         36241
  C:B232H         LINE#         36244
  C:B234H         LINE#         36247
  C:B236H         LINE#         36250
  C:B238H         LINE#         36253
  C:B23AH         LINE#         36256
  C:B23CH         LINE#         36259
  C:B23EH         LINE#         36262
  C:B240H         LINE#         36265
  C:B241H         LINE#         36275
  C:B243H         LINE#         36277
  C:B245H         LINE#         36278
  C:B246H         LINE#         36279
  C:B247H         LINE#         36280
  C:B248H         LINE#         36290
  C:B24AH         LINE#         36293
  C:B24CH         LINE#         36296
BL51 BANKED LINKER/LOCATER V5.12                                                      02/19/2014  16:34:22  PAGE 13


  C:B24EH         LINE#         36299
  C:B250H         LINE#         36302
  C:B252H         LINE#         36305
  C:B254H         LINE#         36308
  C:B256H         LINE#         36311
  C:B258H         LINE#         36314
  C:B0C4H         LINE#         36329
  C:B0C5H         LINE#         36330
  C:B0C7H         LINE#         36331
  C:B0C8H         LINE#         36332
  C:B0C9H         LINE#         36333
  C:B0CAH         LINE#         36336
  C:B0CCH         LINE#         36339
  C:B0CDH         LINE#         36340
  C:B0D0H         LINE#         36343
  C:B0D3H         LINE#         36346
  C:B0D5H         LINE#         36347
  C:B0D6H         LINE#         36348
  C:B0D7H         LINE#         36349
  C:B0D8H         LINE#         36356
  C:B0D9H         LINE#         36357
  C:B0DAH         LINE#         36358
  C:B0DBH         LINE#         36364
  C:B0DCH         LINE#         36365
  C:B0DDH         LINE#         36366
  C:B0DEH         LINE#         36367
  C:B0E0H         LINE#         36368
  C:B0E1H         LINE#         36369
  C:B0E4H         LINE#         36372
  C:B0E5H         LINE#         36373
  C:B0E8H         LINE#         36374
  C:B0E9H         LINE#         36376
  C:B0EAH         LINE#         36377
  C:B0ECH         LINE#         36378
  C:B0EDH         LINE#         36379
  C:B0EFH         LINE#         36383
  C:B0F1H         LINE#         36384
  C:B0F2H         LINE#         36385
  C:B0F4H         LINE#         36386
  C:B0F5H         LINE#         36387
  C:B0F6H         LINE#         36388
  C:B0F7H         LINE#         36389
  C:B0F9H         LINE#         36390
  C:B0FAH         LINE#         36391
  C:B0FBH         LINE#         36392
  C:B0FCH         LINE#         36393
  C:B0FDH         LINE#         36394
  C:B0FFH         LINE#         36395
  C:B100H         LINE#         36396
  C:B101H         LINE#         36397
  C:B103H         LINE#         36398
  C:B105H         LINE#         36402
  C:B107H         LINE#         36405
  C:B17CH         LINE#         36423
  C:B17FH         LINE#         36426
  C:B182H         LINE#         36429
  C:B184H         LINE#         36430
BL51 BANKED LINKER/LOCATER V5.12                                                      02/19/2014  16:34:22  PAGE 14


  C:B185H         LINE#         36431
  C:B186H         LINE#         36432
  C:B187H         LINE#         36439
  C:B188H         LINE#         36440
  C:B189H         LINE#         36441
  C:B18AH         LINE#         36447
  C:B18CH         LINE#         36448
  C:B18EH         LINE#         36449
  C:B191H         LINE#         36452
  C:B192H         LINE#         36453
  C:B195H         LINE#         36454
  C:B196H         LINE#         36456
  C:B197H         LINE#         36457
  C:B199H         LINE#         36458
  C:B19AH         LINE#         36459
  C:B19CH         LINE#         36463
  C:B19EH         LINE#         36464
  C:B19FH         LINE#         36465
  C:B1A1H         LINE#         36466
  C:B1A2H         LINE#         36467
  C:B1A3H         LINE#         36468
  C:B1A4H         LINE#         36469
  C:B1A6H         LINE#         36470
  C:B1A7H         LINE#         36471
  C:B1A8H         LINE#         36472
  C:B1A9H         LINE#         36473
  C:B1AAH         LINE#         36474
  C:B1ACH         LINE#         36475
  C:B1ADH         LINE#         36476
  C:B1AEH         LINE#         36477
  C:B1B0H         LINE#         36478
  C:B1B2H         LINE#         36482
  C:B1B4H         LINE#         36485
  C:B075H         LINE#         36501
  C:B077H         LINE#         36504
  C:B079H         LINE#         36505
  C:B07CH         LINE#         36508
  C:B07DH         LINE#         36509
  C:B080H         LINE#         36512
  C:B082H         LINE#         36513
  C:B085H         LINE#         36516
  C:B086H         LINE#         36517
  C:B089H         LINE#         36520
  C:B08BH         LINE#         36521
  C:B08EH         LINE#         36524
  C:B090H         LINE#         36525
  C:B091H         LINE#         36526
  C:B092H         LINE#         36527
  C:B093H         LINE#         36534
  C:B094H         LINE#         36535
  C:B095H         LINE#         36536
  C:B096H         LINE#         36542
  C:B098H         LINE#         36543
  C:B09AH         LINE#         36544
  C:B09BH         LINE#         36545
  C:B09CH         LINE#         36546
  C:B09DH         LINE#         36547
BL51 BANKED LINKER/LOCATER V5.12                                                      02/19/2014  16:34:22  PAGE 15


  C:B0A0H         LINE#         36550
  C:B0A1H         LINE#         36551
  C:B0A4H         LINE#         36552
  C:B0A5H         LINE#         36554
  C:B0A6H         LINE#         36555
  C:B0A8H         LINE#         36556
  C:B0A9H         LINE#         36557
  C:B0ABH         LINE#         36561
  C:B0ADH         LINE#         36562
  C:B0AEH         LINE#         36563
  C:B0B0H         LINE#         36564
  C:B0B1H         LINE#         36565
  C:B0B2H         LINE#         36566
  C:B0B3H         LINE#         36567
  C:B0B5H         LINE#         36568
  C:B0B6H         LINE#         36569
  C:B0B7H         LINE#         36570
  C:B0B8H         LINE#         36571
  C:B0B9H         LINE#         36572
  C:B0BBH         LINE#         36573
  C:B0BCH         LINE#         36574
  C:B0BDH         LINE#         36575
  C:B0BFH         LINE#         36576
  C:B0C1H         LINE#         36580
  C:B0C3H         LINE#         36583
  C:B1B5H         LINE#         36601
  C:B1B8H         LINE#         36604
  C:B1B9H         LINE#         36605
  C:B1BBH         LINE#         36606
  C:B1BCH         LINE#         36607
  C:B1BDH         LINE#         36608
  C:B1BEH         LINE#         36615
  C:B1BFH         LINE#         36616
  C:B1C0H         LINE#         36617
  C:B1C1H         LINE#         36623
  C:B1C4H         LINE#         36627
  C:B1C5H         LINE#         36628
  C:B1C8H         LINE#         36629
  C:B1C9H         LINE#         36631
  C:B1CAH         LINE#         36632
  C:B1CCH         LINE#         36633
  C:B1CDH         LINE#         36634
  C:B1CFH         LINE#         36638
  C:B1D1H         LINE#         36639
  C:B1D2H         LINE#         36640
  C:B1D4H         LINE#         36641
  C:B1D5H         LINE#         36642
  C:B1D6H         LINE#         36643
  C:B1D7H         LINE#         36644
  C:B1D9H         LINE#         36645
  C:B1DAH         LINE#         36646
  C:B1DBH         LINE#         36647
  C:B1DCH         LINE#         36648
  C:B1DDH         LINE#         36649
  C:B1DFH         LINE#         36650
  C:B1E0H         LINE#         36651
  C:B1E1H         LINE#         36652
BL51 BANKED LINKER/LOCATER V5.12                                                      02/19/2014  16:34:22  PAGE 16


  C:B1E3H         LINE#         36653
  C:B1E5H         LINE#         36657
  C:B1E7H         LINE#         36660
  C:AD27H         LINE#         36678
  C:AD2AH         LINE#         36682
  C:AD2BH         LINE#         36683
  C:AD2CH         LINE#         36684
  C:AD2DH         LINE#         36690
  C:AD30H         LINE#         36693
  C:AD31H         LINE#         36694
  C:AD34H         LINE#         36695
  C:AD35H         LINE#         36697
  C:AD36H         LINE#         36698
  C:AD38H         LINE#         36699
  C:AD39H         LINE#         36700
  C:AD3BH         LINE#         36704
  C:AD3CH         LINE#         36705
  C:AD3DH         LINE#         36706
  C:AD3EH         LINE#         36712
  C:AD3FH         LINE#         36713
  C:AD41H         LINE#         36714
  C:AD42H         LINE#         36715
  C:AD43H         LINE#         36716
  C:AD44H         LINE#         36722
  C:AD47H         LINE#         36725
  C:AD49H         LINE#         36726
  C:AD4AH         LINE#         36727
  C:AD4CH         LINE#         36728
  C:AD4DH         LINE#         36729
  C:AD4EH         LINE#         36730
  C:AD4FH         LINE#         36731
  C:AD51H         LINE#         36732
  C:AD52H         LINE#         36733
  C:AD53H         LINE#         36734
  C:AD54H         LINE#         36735
  C:AD55H         LINE#         36736
  C:AD57H         LINE#         36737
  C:AD58H         LINE#         36738
  C:AD59H         LINE#         36739
  C:AD5BH         LINE#         36740
  C:AD5DH         LINE#         36744
  C:AD5EH         LINE#         36745
  C:AD60H         LINE#         36746
  C:AD61H         LINE#         36747
  C:AD62H         LINE#         36748
  C:AD63H         LINE#         36754
  C:AD64H         LINE#         36755
  C:AD65H         LINE#         36756
  C:AD66H         LINE#         36757
  C:AD67H         LINE#         36758
  C:AD68H         LINE#         36759
  C:AD6BH         LINE#         36762
  C:AD6DH         LINE#         36763
  C:AD6EH         LINE#         36764
  C:AD70H         LINE#         36765
  C:AD71H         LINE#         36766
  C:AD72H         LINE#         36767
BL51 BANKED LINKER/LOCATER V5.12                                                      02/19/2014  16:34:22  PAGE 17


  C:AD73H         LINE#         36768
  C:AD75H         LINE#         36769
  C:AD76H         LINE#         36770
  C:AD77H         LINE#         36771
  C:AD78H         LINE#         36772
  C:AD79H         LINE#         36773
  C:AD7BH         LINE#         36774
  C:AD7CH         LINE#         36775
  C:AD7DH         LINE#         36776
  C:AD7FH         LINE#         36777
  C:AD81H         LINE#         36781
  C:AD82H         LINE#         36782
  C:AD84H         LINE#         36783
  C:AD85H         LINE#         36784
  C:AD86H         LINE#         36785
  C:AD87H         LINE#         36791
  C:AD8AH         LINE#         36794
  C:AD8CH         LINE#         36795
  C:AD8DH         LINE#         36796
  C:AD8FH         LINE#         36797
  C:AD90H         LINE#         36798
  C:AD91H         LINE#         36799
  C:AD92H         LINE#         36800
  C:AD94H         LINE#         36801
  C:AD95H         LINE#         36802
  C:AD96H         LINE#         36803
  C:AD97H         LINE#         36804
  C:AD98H         LINE#         36805
  C:AD9AH         LINE#         36806
  C:AD9BH         LINE#         36807
  C:AD9CH         LINE#         36808
  C:AD9EH         LINE#         36809
  C:ADA0H         LINE#         36813
  C:ADA1H         LINE#         36814
  C:ADA4H         LINE#         36815
  C:ADA5H         LINE#         36817
  C:ADA6H         LINE#         36818
  C:ADA8H         LINE#         36819
  C:ADAAH         LINE#         36820
  C:ADABH         LINE#         36821
  C:ADADH         LINE#         36823
  C:ADAFH         LINE#         36827
  C:ADB0H         LINE#         36828
  C:ADB1H         LINE#         36829
  C:ADB2H         LINE#         36835
  C:ADB5H         LINE#         36838
  C:ADB6H         LINE#         36839
  C:ADB9H         LINE#         36840
  C:ADBAH         LINE#         36842
  C:ADBBH         LINE#         36843
  C:ADBDH         LINE#         36844
  C:ADBEH         LINE#         36845
  C:ADC0H         LINE#         36849
  C:ADC2H         LINE#         36852
  C:AF46H         LINE#         36863
  C:AF48H         LINE#         36864
  C:AF4AH         LINE#         36866
BL51 BANKED LINKER/LOCATER V5.12                                                      02/19/2014  16:34:22  PAGE 18


  C:AF4CH         LINE#         36867
  C:AF4DH         LINE#         36868
  C:AF4EH         LINE#         36869
  C:AF50H         LINE#         36870
  C:AF51H         LINE#         36871
  C:AF53H         LINE#         36872
  C:AF55H         LINE#         36873
  C:AF56H         LINE#         36874
  C:AF57H         LINE#         36875
  C:AF58H         LINE#         36876
  C:AF59H         LINE#         36877
  C:AF5AH         LINE#         36881
  C:AF5CH         LINE#         36882
  C:AF5DH         LINE#         36883
  C:AF5EH         LINE#         36884
  C:AF5FH         LINE#         36885
  C:AF60H         LINE#         36886
  C:AF61H         LINE#         36887
  C:AF62H         LINE#         36888
  C:AF63H         LINE#         36889
  C:AF64H         LINE#         36890
  C:AF65H         LINE#         36891
  C:AF66H         LINE#         36892
  C:AF67H         LINE#         36893
  C:AF68H         LINE#         36894
  C:AF69H         LINE#         36895
  C:AF6AH         LINE#         36896
  C:AF6BH         LINE#         36897
  C:AF6CH         LINE#         36898
  C:AF6DH         LINE#         36903
  C:AF6FH         LINE#         36904
  C:AF70H         LINE#         36905
  C:AF71H         LINE#         36906
  C:AF74H         LINE#         36907
  C:AF77H         LINE#         36910
  C:AF79H         LINE#         36911
  C:AF7AH         LINE#         36912
  C:AF7BH         LINE#         36913
  C:AF7EH         LINE#         36914
  C:AF80H         LINE#         36915
  C:AF83H         LINE#         36918
  C:AF85H         LINE#         36919
  C:AF86H         LINE#         36920
  C:AF87H         LINE#         36921
  C:AF8AH         LINE#         36922
  C:AF8DH         LINE#         36925
  C:AF8FH         LINE#         36926
  C:AF90H         LINE#         36927
  C:AF91H         LINE#         36928
  C:AF94H         LINE#         36929
  C:AF96H         LINE#         36930
  C:AF99H         LINE#         36933
  C:AF9BH         LINE#         36934
  C:AF9CH         LINE#         36935
  C:AF9DH         LINE#         36936
  C:AFA0H         LINE#         36937
  C:AFA2H         LINE#         36938
BL51 BANKED LINKER/LOCATER V5.12                                                      02/19/2014  16:34:22  PAGE 19


  C:AFA5H         LINE#         36941
  C:AFA7H         LINE#         36942
  C:AFA8H         LINE#         36943
  C:AFA9H         LINE#         36944
  C:AFACH         LINE#         36945
  C:AFAEH         LINE#         36946
  C:AFB1H         LINE#         36949
  C:AFB3H         LINE#         36950
  C:AFB4H         LINE#         36951
  C:AFB5H         LINE#         36952
  C:A3C8H         LINE#         36963
  C:A3CAH         LINE#         36964
  C:A3CCH         LINE#         36966
  C:A3CEH         LINE#         36967
  C:A3D0H         LINE#         36968
  C:A3D2H         LINE#         36972
  C:A3D4H         LINE#         36973
  C:A3D5H         LINE#         36974
  C:A3D6H         LINE#         36975
  C:A3D7H         LINE#         36976
  C:A3D8H         LINE#         36977
  C:A3D9H         LINE#         36978
  C:A3DAH         LINE#         36979
  C:A3DBH         LINE#         36980
  C:A3DCH         LINE#         36981
  C:A3DDH         LINE#         36982
  C:A3DEH         LINE#         36983
  C:A3DFH         LINE#         36984
  C:A3E0H         LINE#         36985
  C:A3E1H         LINE#         36986
  C:A3E2H         LINE#         36987
  C:A3E3H         LINE#         36988
  C:A3E4H         LINE#         36989
  C:A3E5H         LINE#         37001
  C:A3E7H         LINE#         37002
  C:A3E9H         LINE#         37003
  C:A3EBH         LINE#         37004
  C:A3EDH         LINE#         37005
  C:A3EFH         LINE#         37006
  C:A3F1H         LINE#         37007
  C:A3F3H         LINE#         37008
  C:A3F5H         LINE#         37009
  C:A3F8H         LINE#         37012
  C:A3FAH         LINE#         37013
  C:A3FBH         LINE#         37014
  C:A3FCH         LINE#         37015
  C:A3FDH         LINE#         37016
  C:A3FEH         LINE#         37017
  C:A3FFH         LINE#         37018
  C:A402H         LINE#         37019
  C:A403H         LINE#         37020
  C:A405H         LINE#         37021
  C:A406H         LINE#         37022
  C:A407H         LINE#         37023
  C:A408H         LINE#         37024
  C:A409H         LINE#         37025
  C:A40AH         LINE#         37026
BL51 BANKED LINKER/LOCATER V5.12                                                      02/19/2014  16:34:22  PAGE 20


  C:A40BH         LINE#         37027
  C:A40CH         LINE#         37028
  C:A40DH         LINE#         37029
  C:A40EH         LINE#         37033
  C:A410H         LINE#         37036
  C:A411H         LINE#         37037
  C:A412H         LINE#         37038
  C:A414H         LINE#         37043
  C:A416H         LINE#         37044
  C:A417H         LINE#         37045
  C:A418H         LINE#         37046
  C:A41AH         LINE#         37047
  C:A41BH         LINE#         37050
  C:A41CH         LINE#         37051
  C:A41DH         LINE#         37052
  C:A41EH         LINE#         37053
  C:A41FH         LINE#         37054
  C:A421H         LINE#         37055
  C:A422H         LINE#         37058
  C:A423H         LINE#         37059
  C:A424H         LINE#         37060
  C:A425H         LINE#         37061
  C:A426H         LINE#         37062
  C:A428H         LINE#         37063
  C:A429H         LINE#         37066
  C:A42BH         LINE#         37073
  C:A42DH         LINE#         37074
  C:A42EH         LINE#         37075
  C:A42FH         LINE#         37076
  C:A430H         LINE#         37077
  C:A431H         LINE#         37078
  C:A432H         LINE#         37079
  C:A434H         LINE#         37080
  C:A435H         LINE#         37081
  C:A437H         LINE#         37086
  C:A439H         LINE#         37087
  C:A43AH         LINE#         37088
  C:A43BH         LINE#         37089
  C:A43DH         LINE#         37090
  C:A43EH         LINE#         37093
  C:A43FH         LINE#         37094
  C:A440H         LINE#         37095
  C:A441H         LINE#         37096
  C:A442H         LINE#         37097
  C:A444H         LINE#         37098
  C:A445H         LINE#         37101
  C:A446H         LINE#         37102
  C:A447H         LINE#         37103
  C:A448H         LINE#         37104
  C:A449H         LINE#         37105
  C:A44BH         LINE#         37106
  C:A44CH         LINE#         37109
  C:A44EH         LINE#         37116
  C:A44FH         LINE#         37117
  C:A451H         LINE#         37118
  C:A452H         LINE#         37119
  C:A454H         LINE#         37124
BL51 BANKED LINKER/LOCATER V5.12                                                      02/19/2014  16:34:22  PAGE 21


  C:A456H         LINE#         37125
  C:A457H         LINE#         37126
  C:A458H         LINE#         37127
  C:A45AH         LINE#         37128
  C:A45BH         LINE#         37131
  C:A45CH         LINE#         37132
  C:A45DH         LINE#         37133
  C:A45EH         LINE#         37134
  C:A45FH         LINE#         37135
  C:A461H         LINE#         37136
  C:A462H         LINE#         37139
  C:A463H         LINE#         37140
  C:A464H         LINE#         37141
  C:A465H         LINE#         37142
  C:A466H         LINE#         37143
  C:A468H         LINE#         37144
  C:A469H         LINE#         37154
  C:A46BH         LINE#         37155
  C:A46CH         LINE#         37156
  C:A46DH         LINE#         37157
  C:A46EH         LINE#         37158
  C:A470H         LINE#         37159
  C:A471H         LINE#         37160
  C:A472H         LINE#         37161
  C:A474H         LINE#         37162
  C:A475H         LINE#         37163
  C:A476H         LINE#         37164
  C:A478H         LINE#         37165
  C:A479H         LINE#         37166
  C:A47BH         LINE#         37167
  C:A47CH         LINE#         37168
  C:A47DH         LINE#         37169
  C:A47EH         LINE#         37170
  C:A47FH         LINE#         37171
  C:A480H         LINE#         37172
  C:A483H         LINE#         37173
  C:A484H         LINE#         37174
  C:A485H         LINE#         37175
  C:A486H         LINE#         37176
  C:A487H         LINE#         37177
  C:A488H         LINE#         37178
  C:A489H         LINE#         37179
  C:A48BH         LINE#         37180
  C:A48CH         LINE#         37181
  C:A48DH         LINE#         37182
  C:A48EH         LINE#         37183
  C:A48FH         LINE#         37184
  C:A490H         LINE#         37185
  C:A491H         LINE#         37186
  C:A492H         LINE#         37187
  C:A493H         LINE#         37190
  C:A495H         LINE#         37191
  C:A496H         LINE#         37192
  C:A497H         LINE#         37193
  C:A498H         LINE#         37194
  C:A499H         LINE#         37195
  C:A49AH         LINE#         37196
BL51 BANKED LINKER/LOCATER V5.12                                                      02/19/2014  16:34:22  PAGE 22


  C:A49CH         LINE#         37197
  C:A49DH         LINE#         37198
  C:A49EH         LINE#         37199
  C:A49FH         LINE#         37200
  C:A4A0H         LINE#         37201
  C:A4A1H         LINE#         37202
  C:A4A3H         LINE#         37203
  C:A4A4H         LINE#         37204
  C:A4A5H         LINE#         37205
  C:A4A6H         LINE#         37206
  C:A4A7H         LINE#         37207
  C:A4A8H         LINE#         37208
  C:A4A9H         LINE#         37209
  C:A4AAH         LINE#         37210
  C:A4ACH         LINE#         37211
  C:A4ADH         LINE#         37212
  C:A4AEH         LINE#         37213
  C:A4AFH         LINE#         37214
  C:A4B0H         LINE#         37215
  C:A4B1H         LINE#         37216
  C:A4B3H         LINE#         37217
  C:A4B4H         LINE#         37218
  C:A4B5H         LINE#         37219
  C:A4B7H         LINE#         37220
  C:A4B8H         LINE#         37221
  C:A4B9H         LINE#         37222
  C:A4BAH         LINE#         37223
  C:A4BBH         LINE#         37224
  C:A4BCH         LINE#         37225
  C:A4BDH         LINE#         37226
  C:A4BFH         LINE#         37227
  C:A4C0H         LINE#         37228
  C:A4C1H         LINE#         37229
  C:A4C2H         LINE#         37230
  C:A4C3H         LINE#         37231
  C:A4C4H         LINE#         37232
  C:A4C7H         LINE#         37235
  C:A4C8H         LINE#         37236
  C:A4CAH         LINE#         37237
  C:A4CBH         LINE#         37238
  C:A4CCH         LINE#         37239
  C:A4CDH         LINE#         37241
  C:A4CFH         LINE#         37242
  C:A4D0H         LINE#         37243
  C:A4D1H         LINE#         37244
  C:A4D2H         LINE#         37245
  C:A4D3H         LINE#         37246
  C:A4D4H         LINE#         37247
  C:A4D6H         LINE#         37248
  C:A4D7H         LINE#         37249
  C:A4D8H         LINE#         37250
  C:A4D9H         LINE#         37251
  C:A4DAH         LINE#         37252
  C:A4DBH         LINE#         37253
  C:A4DCH         LINE#         37254
  C:A4DDH         LINE#         37255
  C:A4DEH         LINE#         37256
BL51 BANKED LINKER/LOCATER V5.12                                                      02/19/2014  16:34:22  PAGE 23


  C:A4DFH         LINE#         37257
  C:A4E1H         LINE#         37258
  C:A4E4H         LINE#         37263
  C:A4E6H         LINE#         37264
  C:A4E7H         LINE#         37265
  C:A4E8H         LINE#         37266
  C:A4E9H         LINE#         37267
  C:A4EAH         LINE#         37268
  C:A4EBH         LINE#         37269
  C:A4ECH         LINE#         37270
  C:A4EEH         LINE#         37271
  C:A4EFH         LINE#         37272
  C:A4F0H         LINE#         37273
  C:A4F1H         LINE#         37274
  C:A4F2H         LINE#         37275
  C:A4F4H         LINE#         37276
  C:A4F5H         LINE#         37277
  C:A4F8H         LINE#         37278
  C:A4F9H         LINE#         37279
  C:A4FBH         LINE#         37280
  C:A4FCH         LINE#         37281
  C:A4FDH         LINE#         37282
  C:A4FEH         LINE#         37283
  C:A4FFH         LINE#         37284
  C:A500H         LINE#         37287
  C:A502H         LINE#         37288
  C:A503H         LINE#         37289
  C:A505H         LINE#         37290
  C:A506H         LINE#         37291
  C:A507H         LINE#         37293
  C:A509H         LINE#         37298
  C:A50AH         LINE#         37299
  C:A50CH         LINE#         37300
  C:A50FH         LINE#         37303
  C:A511H         LINE#         37308
  C:A512H         LINE#         37309
  C:A513H         LINE#         37310
  C:A514H         LINE#         37311
  C:A516H         LINE#         37312
  C:A517H         LINE#         37315
  C:A519H         LINE#         37320
  C:A51BH         LINE#         37322
  C:A51CH         LINE#         37323
  C:A51DH         LINE#         37324
  C:A51EH         LINE#         37325
  C:A520H         LINE#         37326
  C:A521H         LINE#         37330
  C:A522H         LINE#         37331
  C:A524H         LINE#         37332
  C:A525H         LINE#         37333
  C:A526H         LINE#         37334
  C:A527H         LINE#         37336
  C:A529H         LINE#         37337
  C:A52AH         LINE#         37338
  C:A52BH         LINE#         37339
  C:A52CH         LINE#         37340
  C:A52DH         LINE#         37341
BL51 BANKED LINKER/LOCATER V5.12                                                      02/19/2014  16:34:22  PAGE 24


  C:A52EH         LINE#         37342
  C:A530H         LINE#         37343
  C:A531H         LINE#         37344
  C:A532H         LINE#         37345
  C:A533H         LINE#         37346
  C:A534H         LINE#         37347
  C:A535H         LINE#         37348
  C:A536H         LINE#         37349
  C:A537H         LINE#         37350
  C:A538H         LINE#         37351
  C:A539H         LINE#         37352
  C:A53BH         LINE#         37357
  C:A53DH         LINE#         37358
  C:A53EH         LINE#         37359
  C:A53FH         LINE#         37360
  C:A540H         LINE#         37361
  C:A541H         LINE#         37362
  C:A542H         LINE#         37363
  C:A544H         LINE#         37364
  C:A545H         LINE#         37365
  C:A547H         LINE#         37367
  C:A548H         LINE#         37368
  C:A549H         LINE#         37369
  C:A54AH         LINE#         37370
  C:A54BH         LINE#         37371
  C:A54CH         LINE#         37373
  C:A54EH         LINE#         37374
  C:A551H         LINE#         37379
  C:A553H         LINE#         37382
  C:A555H         LINE#         37389
  C:A557H         LINE#         37391
  C:A55AH         LINE#         37397
  C:A55CH         LINE#         37398
  C:A55DH         LINE#         37399
  C:A55FH         LINE#         37400
  C:A560H         LINE#         37401
  C:A561H         LINE#         37402
  C:A562H         LINE#         37403
  C:A564H         LINE#         37404
  C:A565H         LINE#         37405
  C:A567H         LINE#         37409
  C:A569H         LINE#         37410
  C:A56AH         LINE#         37411
  C:A56CH         LINE#         37412
  C:A56DH         LINE#         37413
  C:A56EH         LINE#         37414
  C:A56FH         LINE#         37415
  C:A571H         LINE#         37416
  C:A572H         LINE#         37417
  C:A575H         LINE#         37421
  C:A577H         LINE#         37424
  C:AE4FH         LINE#         37434
  C:AE51H         LINE#         37435
  C:AE53H         LINE#         37437
  C:AE55H         LINE#         37439
  C:AE57H         LINE#         37440
  C:AE59H         LINE#         37444
BL51 BANKED LINKER/LOCATER V5.12                                                      02/19/2014  16:34:22  PAGE 25


  C:AE5BH         LINE#         37445
  C:AE5CH         LINE#         37446
  C:AE5DH         LINE#         37447
  C:AE5EH         LINE#         37448
  C:AE5FH         LINE#         37449
  C:AE60H         LINE#         37450
  C:AE61H         LINE#         37451
  C:AE62H         LINE#         37452
  C:AE63H         LINE#         37453
  C:AE64H         LINE#         37454
  C:AE65H         LINE#         37455
  C:AE66H         LINE#         37456
  C:AE67H         LINE#         37457
  C:AE68H         LINE#         37458
  C:AE69H         LINE#         37459
  C:AE6AH         LINE#         37460
  C:AE6BH         LINE#         37461
  C:AE6CH         LINE#         37467
  C:AE6EH         LINE#         37468
  C:AE6FH         LINE#         37469
  C:AE70H         LINE#         37470
  C:AE71H         LINE#         37471
  C:AE72H         LINE#         37472
  C:AE73H         LINE#         37473
  C:AE74H         LINE#         37474
  C:AE75H         LINE#         37475
  C:AE76H         LINE#         37476
  C:AE79H         LINE#         37477
  C:AE7AH         LINE#         37478
  C:AE7CH         LINE#         37483
  C:AE7EH         LINE#         37484
  C:AE7FH         LINE#         37485
  C:AE80H         LINE#         37486
  C:AE81H         LINE#         37487
  C:AE82H         LINE#         37488
  C:AE83H         LINE#         37489
  C:AE84H         LINE#         37490
  C:AE85H         LINE#         37491
  C:AE86H         LINE#         37492
  C:AE87H         LINE#         37493
  C:AE88H         LINE#         37494
  C:AE89H         LINE#         37495
  C:AE8BH         LINE#         37496
  C:AE8CH         LINE#         37497
  C:AE8DH         LINE#         37498
  C:AE8EH         LINE#         37499
  C:AE8FH         LINE#         37500
  C:AE91H         LINE#         37501
  C:AE92H         LINE#         37502
  C:AE93H         LINE#         37503
  C:AE94H         LINE#         37504
  C:AE95H         LINE#         37505
  C:AE96H         LINE#         37506
  C:AE98H         LINE#         37507
  C:AE99H         LINE#         37508
  C:AE9AH         LINE#         37509
  C:AE9BH         LINE#         37510
BL51 BANKED LINKER/LOCATER V5.12                                                      02/19/2014  16:34:22  PAGE 26


  C:AE9CH         LINE#         37511
  C:AE9EH         LINE#         37512
  C:AE9FH         LINE#         37513
  C:AEA0H         LINE#         37514
  C:AEA1H         LINE#         37515
  C:AEA2H         LINE#         37516
  C:AEA3H         LINE#         37517
  C:AEA4H         LINE#         37518
  C:AEA6H         LINE#         37519
  C:AEA7H         LINE#         37520
  C:AEA8H         LINE#         37521
  C:AEAAH         LINE#         37522
  C:AEABH         LINE#         37523
  C:AEACH         LINE#         37524
  C:AEADH         LINE#         37525
  C:AEAEH         LINE#         37526
  C:AEAFH         LINE#         37527
  C:AEB2H         LINE#         37530
  C:AEB4H         LINE#         37531
  C:AEB5H         LINE#         37532
  C:AEB7H         LINE#         37533
  C:AEB8H         LINE#         37534
  C:AEB9H         LINE#         37535
  C:AEBAH         LINE#         37536
  C:AEBCH         LINE#         37537
  C:AEBDH         LINE#         37540
  C:AEBFH         LINE#         37541
  C:AEC0H         LINE#         37542
  C:AEC2H         LINE#         37543
  C:AEC3H         LINE#         37544
  C:AEC4H         LINE#         37545
  C:AEC5H         LINE#         37546
  C:AEC7H         LINE#         37547
  C:AEC8H         LINE#         37550
  C:AECAH         LINE#         37554
  C:AA1AH         LINE#         37564
  C:AA1BH         LINE#         37565
  C:AA1CH         LINE#         37566
  C:AA1DH         LINE#         37567
  C:AA1FH         LINE#         37568
  C:AA20H         LINE#         37569
  C:AA21H         LINE#         37573
  C:AA23H         LINE#         37574
  C:AA24H         LINE#         37575
  C:AA25H         LINE#         37576
  C:AA26H         LINE#         37577
  C:AA27H         LINE#         37578
  C:AA28H         LINE#         37580
  C:AA2AH         LINE#         37581
  C:AA2CH         LINE#         37582
  C:AA2DH         LINE#         37583
  C:AA2EH         LINE#         37584
  C:AA2FH         LINE#         37585
  C:AA30H         LINE#         37586
  C:AA31H         LINE#         37587
  C:AA32H         LINE#         37595
  C:AA34H         LINE#         37598
BL51 BANKED LINKER/LOCATER V5.12                                                      02/19/2014  16:34:22  PAGE 27


  C:AA35H         LINE#         37599
  C:AA37H         LINE#         37604
  C:AA39H         LINE#         37605
  C:AA3AH         LINE#         37606
  C:AA3BH         LINE#         37607
  C:AA3DH         LINE#         37608
  C:AA3EH         LINE#         37611
  C:AA3FH         LINE#         37612
  C:AA40H         LINE#         37613
  C:AA41H         LINE#         37614
  C:AA42H         LINE#         37615
  C:AA44H         LINE#         37616
  C:AA45H         LINE#         37630
  C:AA47H         LINE#         37631
  C:AA48H         LINE#         37632
  C:AA49H         LINE#         37633
  C:AA4AH         LINE#         37634
  C:AA4BH         LINE#         37635
  C:AA4CH         LINE#         37636
  C:AA4DH         LINE#         37637
  C:AA4FH         LINE#         37638
  C:AA50H         LINE#         37639
  C:AA51H         LINE#         37640
  C:AA52H         LINE#         37641
  C:AA53H         LINE#         37642
  C:AA54H         LINE#         37643
  C:AA55H         LINE#         37644
  C:AA57H         LINE#         37645
  C:AA58H         LINE#         37646
  C:AA5AH         LINE#         37647
  C:AA5BH         LINE#         37648
  C:AA5DH         LINE#         37649
  C:AA60H         LINE#         37650
  C:AA61H         LINE#         37651
  C:AA62H         LINE#         37652
  C:AA63H         LINE#         37653
  C:AA64H         LINE#         37654
  C:AA65H         LINE#         37655
  C:AA66H         LINE#         37656
  C:AA67H         LINE#         37657
  C:AA69H         LINE#         37658
  C:AA6AH         LINE#         37659
  C:AA6BH         LINE#         37660
  C:AA6DH         LINE#         37661
  C:AA6EH         LINE#         37662
  C:AA6FH         LINE#         37663
  C:AA71H         LINE#         37664
  C:AA72H         LINE#         37665
  C:AA73H         LINE#         37666
  C:AA74H         LINE#         37667
  C:AA75H         LINE#         37668
  C:AA76H         LINE#         37669
  C:AA77H         LINE#         37670
  C:AA78H         LINE#         37671
  C:AA79H         LINE#         37672
  C:AA7AH         LINE#         37673
  C:AA7CH         LINE#         37674
BL51 BANKED LINKER/LOCATER V5.12                                                      02/19/2014  16:34:22  PAGE 28


  C:AA7FH         LINE#         37679
  C:AA81H         LINE#         37680
  C:AA83H         LINE#         37681
  C:AA85H         LINE#         37682
  C:AA87H         LINE#         37683
  C:AA89H         LINE#         37684
  C:AA8AH         LINE#         37685
  C:AA8BH         LINE#         37686
  C:AA8CH         LINE#         37687
  C:AA8DH         LINE#         37688
  C:AA8EH         LINE#         37689
  C:AA8FH         LINE#         37690
  C:AA90H         LINE#         37691
  C:AA92H         LINE#         37692
  C:AA93H         LINE#         37693
  C:AA94H         LINE#         37694
  C:AA96H         LINE#         37695
  C:AA97H         LINE#         37696
  C:AA99H         LINE#         37697
  C:AA9AH         LINE#         37698
  C:AA9BH         LINE#         37699
  C:AA9CH         LINE#         37700
  C:AA9DH         LINE#         37701
  C:AA9EH         LINE#         37702
  C:AAA0H         LINE#         37703
  C:AAA1H         LINE#         37704
  C:AAA2H         LINE#         37705
  C:AAA3H         LINE#         37706
  C:AAA4H         LINE#         37707
  C:AAA5H         LINE#         37708
  C:AAA6H         LINE#         37709
  C:AAA7H         LINE#         37710
  C:AAA9H         LINE#         37711
  C:AAABH         LINE#         37712
  C:AAACH         LINE#         37713
  C:AAADH         LINE#         37714
  C:AAAFH         LINE#         37715
  C:AAB0H         LINE#         37716
  C:AAB1H         LINE#         37717
  C:AAB3H         LINE#         37718
  C:AAB5H         LINE#         37719
  C:AAB8H         LINE#         37722
  C:AABAH         LINE#         37723
  C:AABBH         LINE#         37724
  C:AABDH         LINE#         37725
  C:AABEH         LINE#         37728
  C:AAC0H         LINE#         37729
  C:AAC1H         LINE#         37730
  C:AAC2H         LINE#         37731
  C:AAC3H         LINE#         37732
  C:AAC4H         LINE#         37733
  C:AAC5H         LINE#         37734
  C:AAC7H         LINE#         37735
  C:AAC8H         LINE#         37736
  C:AAC9H         LINE#         37737
  C:AACAH         LINE#         37738
  C:AACBH         LINE#         37739
BL51 BANKED LINKER/LOCATER V5.12                                                      02/19/2014  16:34:22  PAGE 29


  C:AACCH         LINE#         37740
  C:AACFH         LINE#         37741
  C:AAD0H         LINE#         37742
  C:AAD2H         LINE#         37744
  C:AAD3H         LINE#         37745
  C:AAD4H         LINE#         37746
  C:AAD5H         LINE#         37747
  C:AAD6H         LINE#         37748
  C:AAD7H         LINE#         37749
  C:AAD9H         LINE#         37750
  C:AADBH         LINE#         37751
  C:AADCH         LINE#         37754
  C:AADDH         LINE#         37755
  C:AADEH         LINE#         37756
  C:AADFH         LINE#         37758
  C:AAE1H         LINE#         37759
  C:AAE2H         LINE#         37760
  C:AAE3H         LINE#         37761
  C:AAE4H         LINE#         37762
  C:AAE5H         LINE#         37763
  C:AAE6H         LINE#         37764
  C:AAE7H         LINE#         37765
  C:AAE8H         LINE#         37766
  C:AAEAH         LINE#         37771
  C:AAECH         LINE#         37772
  C:AAEDH         LINE#         37773
  C:AAEFH         LINE#         37774
  C:AAF0H         LINE#         37775
  C:AAF1H         LINE#         37777
  C:AAF3H         LINE#         37782
  C:AAF5H         LINE#         37783
  C:AAF6H         LINE#         37784
  C:AAF7H         LINE#         37785
  C:AAF8H         LINE#         37786
  C:AAFAH         LINE#         37787
  C:AAFBH         LINE#         37788
  C:AAFEH         LINE#         37789
  C:AB01H         LINE#         37790
  C:AB02H         LINE#         37791
  C:AB05H         LINE#         37792
  C:AB06H         LINE#         37793
  C:AB09H         LINE#         37794
  C:AB0AH         LINE#         37795
  C:AB0CH         LINE#         37796
  C:AB0EH         LINE#         37797
  C:AB10H         LINE#         37798
  C:AB11H         LINE#         37799
  C:AB13H         LINE#         37800
  C:AB14H         LINE#         37801
  C:AB16H         LINE#         37802
  C:AB18H         LINE#         37803
  C:AB19H         LINE#         37804
  C:AB1AH         LINE#         37805
  C:AB1BH         LINE#         37806
  C:AB1CH         LINE#         37819
  C:AB1DH         LINE#         37820
  C:AB1FH         LINE#         37821
BL51 BANKED LINKER/LOCATER V5.12                                                      02/19/2014  16:34:22  PAGE 30


  C:AB20H         LINE#         37827
  C:AB22H         LINE#         37828
  C:AB23H         LINE#         37829
  C:AB26H         LINE#         37832
  C:AB28H         LINE#         37833
  C:AB29H         LINE#         37834
  C:AB2AH         LINE#         37835
  C:AB2BH         LINE#         37836
  C:AB2CH         LINE#         37837
  C:AB2DH         LINE#         37838
  C:AB2EH         LINE#         37839
  C:AB2FH         LINE#         37840
  C:AB30H         LINE#         37841
  C:AB32H         LINE#         37842
  C:AB34H         LINE#         37847
  C:AB36H         LINE#         37848
  C:AB37H         LINE#         37849
  C:AB38H         LINE#         37850
  C:AB39H         LINE#         37851
  C:AB3AH         LINE#         37852
  C:AB3BH         LINE#         37853
  C:AB3CH         LINE#         37854
  C:AB3DH         LINE#         37856
  C:AB40H         LINE#         37860
  C:AB42H         LINE#         37861
  C:AB43H         LINE#         37862
  C:AB45H         LINE#         37863
  C:AB46H         LINE#         37866
  C:AB48H         LINE#         37867
  C:AB49H         LINE#         37868
  C:AB4AH         LINE#         37869
  C:AB4BH         LINE#         37870
  C:AB4CH         LINE#         37871
  C:AB4DH         LINE#         37872
  C:AB4FH         LINE#         37873
  C:AB51H         LINE#         37877
  C:AB53H         LINE#         37878
  C:AB54H         LINE#         37879
  C:AB55H         LINE#         37880
  C:AB56H         LINE#         37881
  C:AB58H         LINE#         37885
  C:AB5AH         LINE#         37889
  C:AECBH         LINE#         37900
  C:AECCH         LINE#         37902
  C:AECDH         LINE#         37903
  C:AECFH         LINE#         37905
  C:AED0H         LINE#         37906
  C:AED1H         LINE#         37907
  C:AED2H         LINE#         37908
  C:AED4H         LINE#         37909
  C:AED5H         LINE#         37910
  C:AED6H         LINE#         37914
  C:AED8H         LINE#         37915
  C:AED9H         LINE#         37916
  C:AEDAH         LINE#         37917
  C:AEDBH         LINE#         37918
  C:AEDCH         LINE#         37919
BL51 BANKED LINKER/LOCATER V5.12                                                      02/19/2014  16:34:22  PAGE 31


  C:AEDDH         LINE#         37920
  C:AEDEH         LINE#         37921
  C:AEDFH         LINE#         37922
  C:AEE0H         LINE#         37923
  C:AEE1H         LINE#         37924
  C:AEE2H         LINE#         37925
  C:AEE3H         LINE#         37926
  C:AEE4H         LINE#         37927
  C:AEE5H         LINE#         37928
  C:AEE6H         LINE#         37929
  C:AEE7H         LINE#         37930
  C:AEE8H         LINE#         37931
  C:AEE9H         LINE#         37937
  C:AEEBH         LINE#         37938
  C:AEECH         LINE#         37939
  C:AEEDH         LINE#         37940
  C:AEEEH         LINE#         37941
  C:AEEFH         LINE#         37942
  C:AEF0H         LINE#         37943
  C:AEF1H         LINE#         37944
  C:AEF2H         LINE#         37945
  C:AEF3H         LINE#         37946
  C:AEF6H         LINE#         37947
  C:AEF7H         LINE#         37948
  C:AEF9H         LINE#         37953
  C:AEFBH         LINE#         37954
  C:AEFCH         LINE#         37955
  C:AEFDH         LINE#         37956
  C:AEFEH         LINE#         37957
  C:AEFFH         LINE#         37958
  C:AF00H         LINE#         37959
  C:AF01H         LINE#         37960
  C:AF02H         LINE#         37961
  C:AF03H         LINE#         37962
  C:AF04H         LINE#         37963
  C:AF05H         LINE#         37964
  C:AF06H         LINE#         37965
  C:AF08H         LINE#         37966
  C:AF09H         LINE#         37967
  C:AF0AH         LINE#         37968
  C:AF0BH         LINE#         37969
  C:AF0CH         LINE#         37970
  C:AF0EH         LINE#         37971
  C:AF0FH         LINE#         37972
  C:AF10H         LINE#         37973
  C:AF11H         LINE#         37974
  C:AF12H         LINE#         37975
  C:AF13H         LINE#         37976
  C:AF15H         LINE#         37977
  C:AF16H         LINE#         37978
  C:AF17H         LINE#         37979
  C:AF18H         LINE#         37980
  C:AF19H         LINE#         37981
  C:AF1BH         LINE#         37982
  C:AF1CH         LINE#         37983
  C:AF1DH         LINE#         37984
  C:AF1EH         LINE#         37985
BL51 BANKED LINKER/LOCATER V5.12                                                      02/19/2014  16:34:22  PAGE 32


  C:AF1FH         LINE#         37986
  C:AF20H         LINE#         37987
  C:AF21H         LINE#         37988
  C:AF22H         LINE#         37989
  C:AF23H         LINE#         37990
  C:AF25H         LINE#         37991
  C:AF26H         LINE#         37992
  C:AF27H         LINE#         37993
  C:AF28H         LINE#         37994
  C:AF29H         LINE#         37995
  C:AF2AH         LINE#         37996
  C:AF2DH         LINE#         37999
  C:AF2FH         LINE#         38000
  C:AF30H         LINE#         38001
  C:AF32H         LINE#         38002
  C:AF33H         LINE#         38003
  C:AF34H         LINE#         38004
  C:AF35H         LINE#         38005
  C:AF37H         LINE#         38006
  C:AF38H         LINE#         38009
  C:AF3AH         LINE#         38010
  C:AF3BH         LINE#         38011
  C:AF3DH         LINE#         38012
  C:AF3EH         LINE#         38013
  C:AF3FH         LINE#         38014
  C:AF40H         LINE#         38015
  C:AF42H         LINE#         38016
  C:AF43H         LINE#         38019
  C:AF45H         LINE#         38023
  C:AC88H         LINE#         38038
  C:AC8BH         LINE#         38041
  C:AC8EH         LINE#         38044
  C:AC90H         LINE#         38045
  C:AC91H         LINE#         38046
  C:AC92H         LINE#         38047
  C:AC93H         LINE#         38048
  C:AC94H         LINE#         38049
  C:AC96H         LINE#         38050
  C:AC97H         LINE#         38051
  C:AC98H         LINE#         38052
  C:AC99H         LINE#         38053
  C:AC9AH         LINE#         38054
  C:AC9BH         LINE#         38055
  C:AC9DH         LINE#         38056
  C:AC9EH         LINE#         38057
  C:AC9FH         LINE#         38058
  C:ACA0H         LINE#         38059
  C:ACA1H         LINE#         38060
  C:ACA3H         LINE#         38061
  C:ACA4H         LINE#         38062
  C:ACA5H         LINE#         38063
  C:ACA6H         LINE#         38064
  C:ACA7H         LINE#         38065
  C:ACA8H         LINE#         38066
  C:ACA9H         LINE#         38067
  C:ACABH         LINE#         38068
  C:ACACH         LINE#         38069
BL51 BANKED LINKER/LOCATER V5.12                                                      02/19/2014  16:34:22  PAGE 33


  C:ACAEH         LINE#         38070
  C:ACB1H         LINE#         38073
  C:ACB3H         LINE#         38074
  C:ACB4H         LINE#         38075
  C:ACB5H         LINE#         38076
  C:ACB6H         LINE#         38077
  C:ACB7H         LINE#         38078
  C:ACB9H         LINE#         38079
  C:ACBAH         LINE#         38080
  C:ACBBH         LINE#         38081
  C:ACBCH         LINE#         38082
  C:ACBDH         LINE#         38083
  C:ACBEH         LINE#         38084
  C:ACC0H         LINE#         38085
  C:ACC1H         LINE#         38086
  C:ACC2H         LINE#         38087
  C:ACC3H         LINE#         38088
  C:ACC4H         LINE#         38089
  C:ACC6H         LINE#         38090
  C:ACC7H         LINE#         38091
  C:ACC8H         LINE#         38092
  C:ACC9H         LINE#         38093
  C:ACCAH         LINE#         38094
  C:ACCBH         LINE#         38095
  C:ACCCH         LINE#         38096
  C:ACCEH         LINE#         38097
  C:ACCFH         LINE#         38098
  C:ACD0H         LINE#         38099
  C:ACD2H         LINE#         38100
  C:ACD4H         LINE#         38101
  C:ACD7H         LINE#         38104
  C:ACD9H         LINE#         38105
  C:ACDAH         LINE#         38106
  C:ACDBH         LINE#         38107
  C:ACDCH         LINE#         38108
  C:ACDDH         LINE#         38109
  C:ACDFH         LINE#         38110
  C:ACE0H         LINE#         38111
  C:ACE1H         LINE#         38112
  C:ACE2H         LINE#         38113
  C:ACE3H         LINE#         38114
  C:ACE4H         LINE#         38115
  C:ACE6H         LINE#         38116
  C:ACE7H         LINE#         38117
  C:ACE8H         LINE#         38118
  C:ACE9H         LINE#         38119
  C:ACEAH         LINE#         38120
  C:ACECH         LINE#         38121
  C:ACEDH         LINE#         38122
  C:ACEEH         LINE#         38123
  C:ACEFH         LINE#         38124
  C:ACF0H         LINE#         38125
  C:ACF1H         LINE#         38126
  C:ACF2H         LINE#         38127
  C:ACF4H         LINE#         38128
  C:ACF5H         LINE#         38129
  C:ACF7H         LINE#         38130
BL51 BANKED LINKER/LOCATER V5.12                                                      02/19/2014  16:34:22  PAGE 34


  C:ACFAH         LINE#         38133
  C:ACFCH         LINE#         38134
  C:ACFDH         LINE#         38135
  C:ACFEH         LINE#         38136
  C:ACFFH         LINE#         38137
  C:AD00H         LINE#         38138
  C:AD02H         LINE#         38139
  C:AD03H         LINE#         38140
  C:AD04H         LINE#         38141
  C:AD05H         LINE#         38142
  C:AD06H         LINE#         38143
  C:AD07H         LINE#         38144
  C:AD09H         LINE#         38145
  C:AD0AH         LINE#         38146
  C:AD0BH         LINE#         38147
  C:AD0CH         LINE#         38148
  C:AD0DH         LINE#         38149
  C:AD0FH         LINE#         38150
  C:AD10H         LINE#         38151
  C:AD11H         LINE#         38152
  C:AD12H         LINE#         38153
  C:AD13H         LINE#         38154
  C:AD14H         LINE#         38155
  C:AD15H         LINE#         38156
  C:AD17H         LINE#         38157
  C:AD18H         LINE#         38158
  C:AD1AH         LINE#         38159
  C:AD1CH         LINE#         38160
  C:AD1EH         LINE#         38161
  C:AD20H         LINE#         38162
  C:AD22H         LINE#         38163
  C:AD24H         LINE#         38164
  C:B108H         LINE#         38181
  C:B10AH         LINE#         38184
  C:B10CH         LINE#         38185
  C:B10DH         LINE#         38186
  C:B10EH         LINE#         38187
  C:B10FH         LINE#         38188
  C:B111H         LINE#         38189
  C:B112H         LINE#         38190
  C:B114H         LINE#         38191
  C:B116H         LINE#         38192
  C:B118H         LINE#         38193
  C:B11AH         LINE#         38194
  C:B11CH         LINE#         38195
  C:B11EH         LINE#         38196
  C:B121H         LINE#         38199
  C:B123H         LINE#         38203
  C:B126H         LINE#         38209
  C:B127H         LINE#         38210
  C:B128H         LINE#         38218
  C:B12AH         LINE#         38224
  C:B12CH         LINE#         38227
  C:B12DH         LINE#         38229
  C:B12EH         LINE#         38231
  C:B130H         LINE#         38233
  C:B131H         LINE#         38235
BL51 BANKED LINKER/LOCATER V5.12                                                      02/19/2014  16:34:22  PAGE 35


  C:B132H         LINE#         38237
  C:B133H         LINE#         38239
  C:B135H         LINE#         38241
  C:B136H         LINE#         38245
  C:B138H         LINE#         38248
  C:B13AH         LINE#         38252
  C:B13BH         LINE#         38253
  C:B13CH         LINE#         38254
  C:B13FH         LINE#         38258
  C:B141H         LINE#         38261
  C:9CB8H         LINE#         38276
  C:9CBBH         LINE#         38279
  C:9CBEH         LINE#         38284
  C:9CC0H         LINE#         38285
  C:9CC1H         LINE#         38286
  C:9CC2H         LINE#         38287
  C:9CC3H         LINE#         38288
  C:9CC4H         LINE#         38289
  C:9CC6H         LINE#         38290
  C:9CC7H         LINE#         38291
  C:9CC8H         LINE#         38292
  C:9CC9H         LINE#         38293
  C:9CCAH         LINE#         38294
  C:9CCBH         LINE#         38295
  C:9CCDH         LINE#         38296
  C:9CCEH         LINE#         38297
  C:9CCFH         LINE#         38298
  C:9CD0H         LINE#         38299
  C:9CD1H         LINE#         38300
  C:9CD3H         LINE#         38301
  C:9CD4H         LINE#         38302
  C:9CD5H         LINE#         38303
  C:9CD6H         LINE#         38304
  C:9CD7H         LINE#         38305
  C:9CD8H         LINE#         38306
  C:9CD9H         LINE#         38307
  C:9CDBH         LINE#         38308
  C:9CDCH         LINE#         38309
  C:9CDDH         LINE#         38310
  C:9CDFH         LINE#         38311
  C:9CE0H         LINE#         38312
  C:9CE1H         LINE#         38313
  C:9CE3H         LINE#         38314
  C:9CE4H         LINE#         38315
  C:9CE6H         LINE#         38316
  C:9CE8H         LINE#         38317
  C:9CEAH         LINE#         38318
  C:9CECH         LINE#         38319
  C:9CEFH         LINE#         38323
  C:9CF1H         LINE#         38324
  C:9CF2H         LINE#         38325
  C:9CF3H         LINE#         38326
  C:9CF4H         LINE#         38327
  C:9CF5H         LINE#         38328
  C:9CF7H         LINE#         38329
  C:9CF8H         LINE#         38330
  C:9CF9H         LINE#         38331
BL51 BANKED LINKER/LOCATER V5.12                                                      02/19/2014  16:34:22  PAGE 36


  C:9CFAH         LINE#         38332
  C:9CFBH         LINE#         38333
  C:9CFCH         LINE#         38334
  C:9CFEH         LINE#         38335
  C:9CFFH         LINE#         38336
  C:9D00H         LINE#         38337
  C:9D01H         LINE#         38338
  C:9D02H         LINE#         38339
  C:9D04H         LINE#         38340
  C:9D05H         LINE#         38341
  C:9D06H         LINE#         38342
  C:9D07H         LINE#         38343
  C:9D08H         LINE#         38344
  C:9D09H         LINE#         38345
  C:9D0AH         LINE#         38346
  C:9D0CH         LINE#         38347
  C:9D0DH         LINE#         38348
  C:9D0EH         LINE#         38349
  C:9D10H         LINE#         38350
  C:9D11H         LINE#         38351
  C:9D12H         LINE#         38352
  C:9D14H         LINE#         38353
  C:9D15H         LINE#         38354
  C:9D17H         LINE#         38355
  C:9D19H         LINE#         38356
  C:9D1BH         LINE#         38357
  C:9D1DH         LINE#         38358
  C:9D1FH         LINE#         38359
  C:9D21H         LINE#         38360
  C:9D24H         LINE#         38364
  C:9D26H         LINE#         38365
  C:9D27H         LINE#         38366
  C:9D28H         LINE#         38367
  C:9D29H         LINE#         38368
  C:9D2AH         LINE#         38369
  C:9D2CH         LINE#         38370
  C:9D2DH         LINE#         38371
  C:9D2EH         LINE#         38372
  C:9D2FH         LINE#         38373
  C:9D30H         LINE#         38374
  C:9D31H         LINE#         38375
  C:9D33H         LINE#         38376
  C:9D34H         LINE#         38377
  C:9D35H         LINE#         38378
  C:9D36H         LINE#         38379
  C:9D37H         LINE#         38380
  C:9D39H         LINE#         38381
  C:9D3AH         LINE#         38382
  C:9D3BH         LINE#         38383
  C:9D3CH         LINE#         38384
  C:9D3DH         LINE#         38385
  C:9D3EH         LINE#         38386
  C:9D3FH         LINE#         38387
  C:9D41H         LINE#         38388
  C:9D42H         LINE#         38389
  C:9D43H         LINE#         38390
  C:9D45H         LINE#         38391
BL51 BANKED LINKER/LOCATER V5.12                                                      02/19/2014  16:34:22  PAGE 37


  C:9D46H         LINE#         38392
  C:9D47H         LINE#         38393
  C:9D49H         LINE#         38394
  C:9D4AH         LINE#         38395
  C:9D4CH         LINE#         38396
  C:9D4EH         LINE#         38397
  C:9D50H         LINE#         38398
  C:9D52H         LINE#         38399
  C:9D54H         LINE#         38400
  C:9D56H         LINE#         38401
  C:9D59H         LINE#         38405
  C:9D5BH         LINE#         38406
  C:9D5CH         LINE#         38407
  C:9D5DH         LINE#         38408
  C:9D5EH         LINE#         38409
  C:9D5FH         LINE#         38410
  C:9D61H         LINE#         38411
  C:9D62H         LINE#         38412
  C:9D63H         LINE#         38413
  C:9D64H         LINE#         38414
  C:9D65H         LINE#         38415
  C:9D66H         LINE#         38416
  C:9D68H         LINE#         38417
  C:9D69H         LINE#         38418
  C:9D6AH         LINE#         38419
  C:9D6BH         LINE#         38420
  C:9D6CH         LINE#         38421
  C:9D6EH         LINE#         38422
  C:9D6FH         LINE#         38423
  C:9D70H         LINE#         38424
  C:9D71H         LINE#         38425
  C:9D72H         LINE#         38426
  C:9D73H         LINE#         38427
  C:9D74H         LINE#         38428
  C:9D76H         LINE#         38429
  C:9D77H         LINE#         38430
  C:9D78H         LINE#         38431
  C:9D7AH         LINE#         38432
  C:9D7BH         LINE#         38433
  C:9D7CH         LINE#         38434
  C:9D7EH         LINE#         38435
  C:9D7FH         LINE#         38436
  C:9D81H         LINE#         38437
  C:9D84H         LINE#         38440
  C:9D86H         LINE#         38441
  C:9D87H         LINE#         38442
  C:9D88H         LINE#         38443
  C:9D89H         LINE#         38444
  C:9D8AH         LINE#         38445
  C:9D8CH         LINE#         38446
  C:9D8DH         LINE#         38447
  C:9D8EH         LINE#         38448
  C:9D8FH         LINE#         38449
  C:9D90H         LINE#         38450
  C:9D91H         LINE#         38451
  C:9D93H         LINE#         38452
  C:9D94H         LINE#         38453
BL51 BANKED LINKER/LOCATER V5.12                                                      02/19/2014  16:34:22  PAGE 38


  C:9D95H         LINE#         38454
  C:9D96H         LINE#         38455
  C:9D97H         LINE#         38456
  C:9D99H         LINE#         38457
  C:9D9AH         LINE#         38458
  C:9D9BH         LINE#         38459
  C:9D9CH         LINE#         38460
  C:9D9DH         LINE#         38461
  C:9D9EH         LINE#         38462
  C:9D9FH         LINE#         38463
  C:9DA1H         LINE#         38464
  C:9DA2H         LINE#         38465
  C:9DA3H         LINE#         38466
  C:9DA5H         LINE#         38467
  C:9DA6H         LINE#         38468
  C:9DA7H         LINE#         38469
  C:9DA9H         LINE#         38470
  C:9DAAH         LINE#         38471
  C:9DABH         LINE#         38472
  C:9DACH         LINE#         38473
  C:9DADH         LINE#         38474
  C:9DAFH         LINE#         38475
  C:9DB0H         LINE#         38476
  C:9DB2H         LINE#         38477
  C:9DB3H         LINE#         38478
  C:9DB6H         LINE#         38483
  C:9DB8H         LINE#         38484
  C:9DB9H         LINE#         38485
  C:9DBAH         LINE#         38486
  C:9DBBH         LINE#         38487
  C:9DBCH         LINE#         38488
  C:9DBEH         LINE#         38489
  C:9DBFH         LINE#         38490
  C:9DC0H         LINE#         38491
  C:9DC1H         LINE#         38492
  C:9DC2H         LINE#         38493
  C:9DC3H         LINE#         38494
  C:9DC5H         LINE#         38495
  C:9DC6H         LINE#         38496
  C:9DC7H         LINE#         38497
  C:9DC8H         LINE#         38498
  C:9DC9H         LINE#         38499
  C:9DCBH         LINE#         38500
  C:9DCCH         LINE#         38501
  C:9DCDH         LINE#         38502
  C:9DCEH         LINE#         38503
  C:9DCFH         LINE#         38504
  C:9DD0H         LINE#         38505
  C:9DD1H         LINE#         38506
  C:9DD3H         LINE#         38507
  C:9DD4H         LINE#         38508
  C:9DD5H         LINE#         38509
  C:9DD7H         LINE#         38510
  C:9DD8H         LINE#         38511
  C:9DD9H         LINE#         38512
  C:9DDBH         LINE#         38513
  C:9DDCH         LINE#         38514
BL51 BANKED LINKER/LOCATER V5.12                                                      02/19/2014  16:34:22  PAGE 39


  C:9DDEH         LINE#         38515
  C:9DE1H         LINE#         38518
  C:9DE3H         LINE#         38519
  C:9DE4H         LINE#         38520
  C:9DE5H         LINE#         38521
  C:9DE6H         LINE#         38522
  C:9DE7H         LINE#         38523
  C:9DE9H         LINE#         38524
  C:9DEAH         LINE#         38525
  C:9DEBH         LINE#         38526
  C:9DECH         LINE#         38527
  C:9DEDH         LINE#         38528
  C:9DEEH         LINE#         38529
  C:9DF0H         LINE#         38530
  C:9DF1H         LINE#         38531
  C:9DF2H         LINE#         38532
  C:9DF3H         LINE#         38533
  C:9DF4H         LINE#         38534
  C:9DF6H         LINE#         38535
  C:9DF7H         LINE#         38536
  C:9DF8H         LINE#         38537
  C:9DF9H         LINE#         38538
  C:9DFAH         LINE#         38539
  C:9DFBH         LINE#         38540
  C:9DFCH         LINE#         38541
  C:9DFEH         LINE#         38542
  C:9DFFH         LINE#         38543
  C:9E00H         LINE#         38544
  C:9E02H         LINE#         38545
  C:9E03H         LINE#         38546
  C:9E04H         LINE#         38547
  C:9E06H         LINE#         38548
  C:9E07H         LINE#         38549
  C:9E08H         LINE#         38550
  C:9E09H         LINE#         38551
  C:9E0AH         LINE#         38552
  C:9E0CH         LINE#         38553
  C:9E0DH         LINE#         38554
  C:9E0FH         LINE#         38555
  C:9E10H         LINE#         38556
  C:9E13H         LINE#         38561
  C:9E15H         LINE#         38562
  C:9E16H         LINE#         38563
  C:9E17H         LINE#         38564
  C:9E18H         LINE#         38565
  C:9E19H         LINE#         38566
  C:9E1BH         LINE#         38567
  C:9E1CH         LINE#         38568
  C:9E1DH         LINE#         38569
  C:9E1EH         LINE#         38570
  C:9E1FH         LINE#         38571
  C:9E20H         LINE#         38572
  C:9E22H         LINE#         38573
  C:9E23H         LINE#         38574
  C:9E24H         LINE#         38575
  C:9E25H         LINE#         38576
  C:9E26H         LINE#         38577
BL51 BANKED LINKER/LOCATER V5.12                                                      02/19/2014  16:34:22  PAGE 40


  C:9E28H         LINE#         38578
  C:9E29H         LINE#         38579
  C:9E2AH         LINE#         38580
  C:9E2BH         LINE#         38581
  C:9E2CH         LINE#         38582
  C:9E2DH         LINE#         38583
  C:9E2EH         LINE#         38584
  C:9E30H         LINE#         38585
  C:9E31H         LINE#         38586
  C:9E32H         LINE#         38587
  C:9E34H         LINE#         38588
  C:9E35H         LINE#         38589
  C:9E36H         LINE#         38590
  C:9E38H         LINE#         38591
  C:9E39H         LINE#         38592
  C:9E3BH         LINE#         38593
  C:9E3EH         LINE#         38597
  C:9E40H         LINE#         38598
  C:9E41H         LINE#         38599
  C:9E42H         LINE#         38600
  C:9E43H         LINE#         38601
  C:9E44H         LINE#         38602
  C:9E46H         LINE#         38603
  C:9E47H         LINE#         38604
  C:9E48H         LINE#         38605
  C:9E49H         LINE#         38606
  C:9E4AH         LINE#         38607
  C:9E4BH         LINE#         38608
  C:9E4DH         LINE#         38609
  C:9E4EH         LINE#         38610
  C:9E4FH         LINE#         38611
  C:9E50H         LINE#         38612
  C:9E51H         LINE#         38613
  C:9E53H         LINE#         38614
  C:9E54H         LINE#         38615
  C:9E55H         LINE#         38616
  C:9E56H         LINE#         38617
  C:9E57H         LINE#         38618
  C:9E58H         LINE#         38619
  C:9E59H         LINE#         38620
  C:9E5BH         LINE#         38621
  C:9E5CH         LINE#         38622
  C:9E5DH         LINE#         38623
  C:9E5FH         LINE#         38624
  C:9E60H         LINE#         38625
  C:9E61H         LINE#         38626
  C:9E63H         LINE#         38627
  C:9E64H         LINE#         38628
  C:9E65H         LINE#         38629
  C:9E66H         LINE#         38630
  C:9E67H         LINE#         38631
  C:9E69H         LINE#         38632
  C:9E6AH         LINE#         38633
  C:9E6CH         LINE#         38634
  C:9E6DH         LINE#         38635
  C:9E70H         LINE#         38638
  C:9E72H         LINE#         38639
BL51 BANKED LINKER/LOCATER V5.12                                                      02/19/2014  16:34:22  PAGE 41


  C:9E73H         LINE#         38640
  C:9E74H         LINE#         38641
  C:9E75H         LINE#         38642
  C:9E76H         LINE#         38643
  C:9E78H         LINE#         38644
  C:9E79H         LINE#         38645
  C:9E7AH         LINE#         38646
  C:9E7BH         LINE#         38647
  C:9E7CH         LINE#         38648
  C:9E7DH         LINE#         38649
  C:9E7FH         LINE#         38650
  C:9E80H         LINE#         38651
  C:9E81H         LINE#         38652
  C:9E82H         LINE#         38653
  C:9E83H         LINE#         38654
  C:9E85H         LINE#         38655
  C:9E86H         LINE#         38656
  C:9E87H         LINE#         38657
  C:9E88H         LINE#         38658
  C:9E89H         LINE#         38659
  C:9E8AH         LINE#         38660
  C:9E8BH         LINE#         38661
  C:9E8DH         LINE#         38662
  C:9E8EH         LINE#         38663
  C:9E8FH         LINE#         38664
  C:9E91H         LINE#         38665
  C:9E92H         LINE#         38666
  C:9E93H         LINE#         38667
  C:9E95H         LINE#         38668
  C:9E96H         LINE#         38669
  C:9E98H         LINE#         38670
  C:9E9AH         LINE#         38671
  C:9E9CH         LINE#         38672
  C:9E9EH         LINE#         38673
  C:9EA0H         LINE#         38674
  C:9EA2H         LINE#         38675
  C:9EA5H         LINE#         38678
  C:9EA7H         LINE#         38679
  C:9EA8H         LINE#         38680
  C:9EA9H         LINE#         38681
  C:9EAAH         LINE#         38682
  C:9EABH         LINE#         38683
  C:9EADH         LINE#         38684
  C:9EAEH         LINE#         38685
  C:9EAFH         LINE#         38686
  C:9EB0H         LINE#         38687
  C:9EB1H         LINE#         38688
  C:9EB2H         LINE#         38689
  C:9EB4H         LINE#         38690
  C:9EB5H         LINE#         38691
  C:9EB6H         LINE#         38692
  C:9EB7H         LINE#         38693
  C:9EB8H         LINE#         38694
  C:9EBAH         LINE#         38695
  C:9EBBH         LINE#         38696
  C:9EBCH         LINE#         38697
  C:9EBDH         LINE#         38698
BL51 BANKED LINKER/LOCATER V5.12                                                      02/19/2014  16:34:22  PAGE 42


  C:9EBEH         LINE#         38699
  C:9EBFH         LINE#         38700
  C:9EC0H         LINE#         38701
  C:9EC2H         LINE#         38702
  C:9EC3H         LINE#         38703
  C:9EC4H         LINE#         38704
  C:9EC6H         LINE#         38705
  C:9EC7H         LINE#         38706
  C:9EC8H         LINE#         38707
  C:9ECAH         LINE#         38708
  C:9ECBH         LINE#         38709
  C:9ECCH         LINE#         38710
  C:9ECDH         LINE#         38711
  C:9ECEH         LINE#         38712
  C:9ED0H         LINE#         38713
  C:9ED1H         LINE#         38714
  C:9ED3H         LINE#         38715
  C:9ED4H         LINE#         38716
  C:9ED7H         LINE#         38720
  C:9ED9H         LINE#         38721
  C:9EDAH         LINE#         38722
  C:9EDBH         LINE#         38723
  C:9EDCH         LINE#         38724
  C:9EDDH         LINE#         38725
  C:9EDFH         LINE#         38726
  C:9EE0H         LINE#         38727
  C:9EE1H         LINE#         38728
  C:9EE2H         LINE#         38729
  C:9EE3H         LINE#         38730
  C:9EE4H         LINE#         38731
  C:9EE6H         LINE#         38732
  C:9EE7H         LINE#         38733
  C:9EE8H         LINE#         38734
  C:9EE9H         LINE#         38735
  C:9EEAH         LINE#         38736
  C:9EECH         LINE#         38737
  C:9EEDH         LINE#         38738
  C:9EEEH         LINE#         38739
  C:9EEFH         LINE#         38740
  C:9EF0H         LINE#         38741
  C:9EF1H         LINE#         38742
  C:9EF2H         LINE#         38743
  C:9EF4H         LINE#         38744
  C:9EF5H         LINE#         38745
  C:9EF6H         LINE#         38746
  C:9EF8H         LINE#         38747
  C:9EF9H         LINE#         38748
  C:9EFAH         LINE#         38749
  C:9EFCH         LINE#         38750
  C:9EFDH         LINE#         38751
  C:9EFEH         LINE#         38752
  C:9EFFH         LINE#         38753
  C:9F00H         LINE#         38754
  C:9F01H         LINE#         38755
  C:9F03H         LINE#         38756
  C:9F05H         LINE#         38757
  C:9F06H         LINE#         38758
BL51 BANKED LINKER/LOCATER V5.12                                                      02/19/2014  16:34:22  PAGE 43


  C:9F09H         LINE#         38762
  C:9F0BH         LINE#         38763
  C:9F0CH         LINE#         38764
  C:9F0DH         LINE#         38765
  C:9F0EH         LINE#         38766
  C:9F0FH         LINE#         38767
  C:9F11H         LINE#         38768
  C:9F12H         LINE#         38769
  C:9F13H         LINE#         38770
  C:9F14H         LINE#         38771
  C:9F15H         LINE#         38772
  C:9F16H         LINE#         38773
  C:9F18H         LINE#         38774
  C:9F19H         LINE#         38775
  C:9F1AH         LINE#         38776
  C:9F1BH         LINE#         38777
  C:9F1CH         LINE#         38778
  C:9F1EH         LINE#         38779
  C:9F1FH         LINE#         38780
  C:9F20H         LINE#         38781
  C:9F21H         LINE#         38782
  C:9F22H         LINE#         38783
  C:9F23H         LINE#         38784
  C:9F24H         LINE#         38785
  C:9F26H         LINE#         38786
  C:9F27H         LINE#         38787
  C:9F28H         LINE#         38788
  C:9F2AH         LINE#         38789
  C:9F2BH         LINE#         38790
  C:9F2CH         LINE#         38791
  C:9F2EH         LINE#         38792
  C:9F2FH         LINE#         38793
  C:9F31H         LINE#         38794
  C:9F33H         LINE#         38795
  C:9F35H         LINE#         38796
  C:9F37H         LINE#         38797
  C:9F39H         LINE#         38798
  C:9F3BH         LINE#         38799
  C:9F3EH         LINE#         38802
  C:9F40H         LINE#         38803
  C:9F41H         LINE#         38804
  C:9F42H         LINE#         38805
  C:9F43H         LINE#         38806
  C:9F44H         LINE#         38807
  C:9F46H         LINE#         38808
  C:9F47H         LINE#         38809
  C:9F48H         LINE#         38810
  C:9F49H         LINE#         38811
  C:9F4AH         LINE#         38812
  C:9F4BH         LINE#         38813
  C:9F4DH         LINE#         38814
  C:9F4EH         LINE#         38815
  C:9F4FH         LINE#         38816
  C:9F50H         LINE#         38817
  C:9F51H         LINE#         38818
  C:9F53H         LINE#         38819
  C:9F54H         LINE#         38820
BL51 BANKED LINKER/LOCATER V5.12                                                      02/19/2014  16:34:22  PAGE 44


  C:9F55H         LINE#         38821
  C:9F56H         LINE#         38822
  C:9F57H         LINE#         38823
  C:9F58H         LINE#         38824
  C:9F59H         LINE#         38825
  C:9F5BH         LINE#         38826
  C:9F5CH         LINE#         38827
  C:9F5DH         LINE#         38828
  C:9F5FH         LINE#         38829
  C:9F60H         LINE#         38830
  C:9F61H         LINE#         38831
  C:9F63H         LINE#         38832
  C:9F64H         LINE#         38833
  C:9F65H         LINE#         38834
  C:9F66H         LINE#         38835
  C:9F67H         LINE#         38836
  C:9F69H         LINE#         38837
  C:9F6AH         LINE#         38838
  C:9F6CH         LINE#         38839
  C:9F6DH         LINE#         38840
  C:9F70H         LINE#         38844
  C:9F72H         LINE#         38845
  C:9F73H         LINE#         38846
  C:9F74H         LINE#         38847
  C:9F75H         LINE#         38848
  C:9F76H         LINE#         38849
  C:9F78H         LINE#         38850
  C:9F79H         LINE#         38851
  C:9F7AH         LINE#         38852
  C:9F7BH         LINE#         38853
  C:9F7CH         LINE#         38854
  C:9F7DH         LINE#         38855
  C:9F7FH         LINE#         38856
  C:9F80H         LINE#         38857
  C:9F81H         LINE#         38858
  C:9F82H         LINE#         38859
  C:9F83H         LINE#         38860
  C:9F85H         LINE#         38861
  C:9F86H         LINE#         38862
  C:9F87H         LINE#         38863
  C:9F88H         LINE#         38864
  C:9F89H         LINE#         38865
  C:9F8AH         LINE#         38866
  C:9F8BH         LINE#         38867
  C:9F8DH         LINE#         38868
  C:9F8EH         LINE#         38869
  C:9F8FH         LINE#         38870
  C:9F91H         LINE#         38871
  C:9F92H         LINE#         38872
  C:9F93H         LINE#         38873
  C:9F95H         LINE#         38874
  C:9F96H         LINE#         38875
  C:9F97H         LINE#         38876
  C:9F98H         LINE#         38877
  C:9F99H         LINE#         38878
  C:9F9BH         LINE#         38879
  C:9F9CH         LINE#         38880
BL51 BANKED LINKER/LOCATER V5.12                                                      02/19/2014  16:34:22  PAGE 45


  C:9F9EH         LINE#         38881
  C:9F9FH         LINE#         38882
  C:9FA2H         LINE#         38885
  C:9FA4H         LINE#         38886
  C:9FA5H         LINE#         38887
  C:9FA6H         LINE#         38888
  C:9FA7H         LINE#         38889
  C:9FA8H         LINE#         38890
  C:9FAAH         LINE#         38891
  C:9FABH         LINE#         38892
  C:9FACH         LINE#         38893
  C:9FADH         LINE#         38894
  C:9FAEH         LINE#         38895
  C:9FAFH         LINE#         38896
  C:9FB1H         LINE#         38897
  C:9FB2H         LINE#         38898
  C:9FB3H         LINE#         38899
  C:9FB4H         LINE#         38900
  C:9FB5H         LINE#         38901
  C:9FB7H         LINE#         38902
  C:9FB8H         LINE#         38903
  C:9FB9H         LINE#         38904
  C:9FBAH         LINE#         38905
  C:9FBBH         LINE#         38906
  C:9FBCH         LINE#         38907
  C:9FBDH         LINE#         38908
  C:9FBFH         LINE#         38909
  C:9FC0H         LINE#         38910
  C:9FC1H         LINE#         38911
  C:9FC3H         LINE#         38912
  C:9FC4H         LINE#         38913
  C:9FC5H         LINE#         38914
  C:9FC7H         LINE#         38915
  C:9FC8H         LINE#         38916
  C:9FCAH         LINE#         38917
  C:9FCCH         LINE#         38918
  C:9FCEH         LINE#         38919
  C:9FD0H         LINE#         38920
  C:9FD2H         LINE#         38921
  C:9FD4H         LINE#         38922
  C:9FD7H         LINE#         38925
  C:9FD9H         LINE#         38926
  C:9FDAH         LINE#         38927
  C:9FDBH         LINE#         38928
  C:9FDCH         LINE#         38929
  C:9FDDH         LINE#         38930
  C:9FDFH         LINE#         38931
  C:9FE0H         LINE#         38932
  C:9FE1H         LINE#         38933
  C:9FE2H         LINE#         38934
  C:9FE3H         LINE#         38935
  C:9FE4H         LINE#         38936
  C:9FE6H         LINE#         38937
  C:9FE7H         LINE#         38938
  C:9FE8H         LINE#         38939
  C:9FE9H         LINE#         38940
  C:9FEAH         LINE#         38941
BL51 BANKED LINKER/LOCATER V5.12                                                      02/19/2014  16:34:22  PAGE 46


  C:9FECH         LINE#         38942
  C:9FEDH         LINE#         38943
  C:9FEEH         LINE#         38944
  C:9FEFH         LINE#         38945
  C:9FF0H         LINE#         38946
  C:9FF1H         LINE#         38947
  C:9FF2H         LINE#         38948
  C:9FF4H         LINE#         38949
  C:9FF5H         LINE#         38950
  C:9FF6H         LINE#         38951
  C:9FF8H         LINE#         38952
  C:9FF9H         LINE#         38953
  C:9FFAH         LINE#         38954
  C:9FFCH         LINE#         38955
  C:9FFDH         LINE#         38956
  C:9FFEH         LINE#         38957
  C:9FFFH         LINE#         38958
  C:A000H         LINE#         38959
  C:A002H         LINE#         38960
  C:A003H         LINE#         38961
  C:A005H         LINE#         38962
  C:A006H         LINE#         38963
  C:A009H         LINE#         38967
  C:A00BH         LINE#         38968
  C:A00CH         LINE#         38969
  C:A00DH         LINE#         38970
  C:A00EH         LINE#         38971
  C:A00FH         LINE#         38972
  C:A011H         LINE#         38973
  C:A012H         LINE#         38974
  C:A013H         LINE#         38975
  C:A014H         LINE#         38976
  C:A015H         LINE#         38977
  C:A016H         LINE#         38978
  C:A018H         LINE#         38979
  C:A019H         LINE#         38980
  C:A01AH         LINE#         38981
  C:A01BH         LINE#         38982
  C:A01CH         LINE#         38983
  C:A01EH         LINE#         38984
  C:A01FH         LINE#         38985
  C:A020H         LINE#         38986
  C:A021H         LINE#         38987
  C:A022H         LINE#         38988
  C:A023H         LINE#         38989
  C:A024H         LINE#         38990
  C:A026H         LINE#         38991
  C:A027H         LINE#         38992
  C:A028H         LINE#         38993
  C:A02AH         LINE#         38994
  C:A02BH         LINE#         38995
  C:A02CH         LINE#         38996
  C:A02EH         LINE#         38997
  C:A02FH         LINE#         38998
  C:A030H         LINE#         38999
  C:A031H         LINE#         39000
  C:A032H         LINE#         39001
BL51 BANKED LINKER/LOCATER V5.12                                                      02/19/2014  16:34:22  PAGE 47


  C:A034H         LINE#         39002
  C:A036H         LINE#         39003
  C:A038H         LINE#         39004
  C:A039H         LINE#         39005
  C:A03CH         LINE#         39009
  C:A03EH         LINE#         39010
  C:A03FH         LINE#         39011
  C:A040H         LINE#         39012
  C:A041H         LINE#         39013
  C:A042H         LINE#         39014
  C:A044H         LINE#         39015
  C:A045H         LINE#         39016
  C:A046H         LINE#         39017
  C:A047H         LINE#         39018
  C:A048H         LINE#         39019
  C:A049H         LINE#         39020
  C:A04BH         LINE#         39021
  C:A04CH         LINE#         39022
  C:A04DH         LINE#         39023
  C:A04EH         LINE#         39024
  C:A04FH         LINE#         39025
  C:A051H         LINE#         39026
  C:A052H         LINE#         39027
  C:A053H         LINE#         39028
  C:A054H         LINE#         39029
  C:A055H         LINE#         39030
  C:A056H         LINE#         39031
  C:A057H         LINE#         39032
  C:A059H         LINE#         39033
  C:A05AH         LINE#         39034
  C:A05BH         LINE#         39035
  C:A05DH         LINE#         39036
  C:A05EH         LINE#         39037
  C:A05FH         LINE#         39038
  C:A061H         LINE#         39039
  C:A062H         LINE#         39040
  C:A064H         LINE#         39041
  C:A066H         LINE#         39042
  C:A068H         LINE#         39043
  C:A06AH         LINE#         39044
  C:A06CH         LINE#         39045
  C:A06EH         LINE#         39046
  C:A071H         LINE#         39049
  C:A073H         LINE#         39050
  C:A074H         LINE#         39051
  C:A075H         LINE#         39052
  C:A076H         LINE#         39053
  C:A077H         LINE#         39054
  C:A079H         LINE#         39055
  C:A07AH         LINE#         39056
  C:A07BH         LINE#         39057
  C:A07CH         LINE#         39058
  C:A07DH         LINE#         39059
  C:A07EH         LINE#         39060
  C:A080H         LINE#         39061
  C:A081H         LINE#         39062
  C:A082H         LINE#         39063
BL51 BANKED LINKER/LOCATER V5.12                                                      02/19/2014  16:34:22  PAGE 48


  C:A083H         LINE#         39064
  C:A084H         LINE#         39065
  C:A086H         LINE#         39066
  C:A087H         LINE#         39067
  C:A088H         LINE#         39068
  C:A089H         LINE#         39069
  C:A08AH         LINE#         39070
  C:A08BH         LINE#         39071
  C:A08CH         LINE#         39072
  C:A08EH         LINE#         39073
  C:A08FH         LINE#         39074
  C:A090H         LINE#         39075
  C:A092H         LINE#         39076
  C:A093H         LINE#         39077
  C:A094H         LINE#         39078
  C:A096H         LINE#         39079
  C:A097H         LINE#         39080
  C:A098H         LINE#         39081
  C:A099H         LINE#         39082
  C:A09AH         LINE#         39083
  C:A09CH         LINE#         39084
  C:A09DH         LINE#         39085
  C:A09FH         LINE#         39086
  C:A0A0H         LINE#         39087
  C:A0A3H         LINE#         39091
  C:A0A5H         LINE#         39092
  C:A0A6H         LINE#         39093
  C:A0A7H         LINE#         39094
  C:A0A8H         LINE#         39095
  C:A0A9H         LINE#         39096
  C:A0ABH         LINE#         39097
  C:A0ACH         LINE#         39098
  C:A0ADH         LINE#         39099
  C:A0AEH         LINE#         39100
  C:A0AFH         LINE#         39101
  C:A0B0H         LINE#         39102
  C:A0B2H         LINE#         39103
  C:A0B3H         LINE#         39104
  C:A0B4H         LINE#         39105
  C:A0B5H         LINE#         39106
  C:A0B6H         LINE#         39107
  C:A0B8H         LINE#         39108
  C:A0B9H         LINE#         39109
  C:A0BAH         LINE#         39110
  C:A0BBH         LINE#         39111
  C:A0BCH         LINE#         39112
  C:A0BDH         LINE#         39113
  C:A0BEH         LINE#         39114
  C:A0C0H         LINE#         39115
  C:A0C1H         LINE#         39116
  C:A0C2H         LINE#         39117
  C:A0C4H         LINE#         39118
  C:A0C5H         LINE#         39119
  C:A0C6H         LINE#         39120
  C:A0C8H         LINE#         39121
  C:A0C9H         LINE#         39122
  C:A0CAH         LINE#         39123
BL51 BANKED LINKER/LOCATER V5.12                                                      02/19/2014  16:34:22  PAGE 49


  C:A0CBH         LINE#         39124
  C:A0CCH         LINE#         39125
  C:A0CEH         LINE#         39126
  C:A0CFH         LINE#         39127
  C:A0D1H         LINE#         39128
  C:A0D2H         LINE#         39129
  C:A0D5H         LINE#         39132
  C:A0D7H         LINE#         39133
  C:A0D8H         LINE#         39134
  C:A0D9H         LINE#         39135
  C:A0DAH         LINE#         39136
  C:A0DBH         LINE#         39137
  C:A0DDH         LINE#         39138
  C:A0DEH         LINE#         39139
  C:A0DFH         LINE#         39140
  C:A0E0H         LINE#         39141
  C:A0E1H         LINE#         39142
  C:A0E2H         LINE#         39143
  C:A0E4H         LINE#         39144
  C:A0E5H         LINE#         39145
  C:A0E6H         LINE#         39146
  C:A0E7H         LINE#         39147
  C:A0E8H         LINE#         39148
  C:A0EAH         LINE#         39149
  C:A0EBH         LINE#         39150
  C:A0ECH         LINE#         39151
  C:A0EDH         LINE#         39152
  C:A0EEH         LINE#         39153
  C:A0EFH         LINE#         39154
  C:A0F0H         LINE#         39155
  C:A0F2H         LINE#         39156
  C:A0F3H         LINE#         39157
  C:A0F4H         LINE#         39158
  C:A0F6H         LINE#         39159
  C:A0F7H         LINE#         39160
  C:A0F8H         LINE#         39161
  C:A0FAH         LINE#         39162
  C:A0FBH         LINE#         39163
  C:A0FDH         LINE#         39164
  C:A0FFH         LINE#         39165
  C:A101H         LINE#         39166
  C:A103H         LINE#         39167
  C:A105H         LINE#         39168
  C:A107H         LINE#         39169
  C:A10AH         LINE#         39172
  C:A10CH         LINE#         39173
  C:A10DH         LINE#         39174
  C:A10EH         LINE#         39175
  C:A10FH         LINE#         39176
  C:A110H         LINE#         39177
  C:A112H         LINE#         39178
  C:A113H         LINE#         39179
  C:A114H         LINE#         39180
  C:A115H         LINE#         39181
  C:A116H         LINE#         39182
  C:A117H         LINE#         39183
  C:A119H         LINE#         39184
BL51 BANKED LINKER/LOCATER V5.12                                                      02/19/2014  16:34:22  PAGE 50


  C:A11AH         LINE#         39185
  C:A11BH         LINE#         39186
  C:A11CH         LINE#         39187
  C:A11DH         LINE#         39188
  C:A11FH         LINE#         39189
  C:A120H         LINE#         39190
  C:A121H         LINE#         39191
  C:A122H         LINE#         39192
  C:A123H         LINE#         39193
  C:A124H         LINE#         39194
  C:A125H         LINE#         39195
  C:A127H         LINE#         39196
  C:A128H         LINE#         39197
  C:A129H         LINE#         39198
  C:A12BH         LINE#         39199
  C:A12CH         LINE#         39200
  C:A12DH         LINE#         39201
  C:A12FH         LINE#         39202
  C:A130H         LINE#         39203
  C:A131H         LINE#         39204
  C:A132H         LINE#         39205
  C:A133H         LINE#         39206
  C:A135H         LINE#         39207
  C:A136H         LINE#         39208
  C:A138H         LINE#         39209
  C:A139H         LINE#         39210
  C:A13CH         LINE#         39215
  C:A13EH         LINE#         39216
  C:A13FH         LINE#         39217
  C:A140H         LINE#         39218
  C:A141H         LINE#         39219
  C:A142H         LINE#         39220
  C:A144H         LINE#         39221
  C:A145H         LINE#         39222
  C:A146H         LINE#         39223
  C:A147H         LINE#         39224
  C:A148H         LINE#         39225
  C:A149H         LINE#         39226
  C:A14BH         LINE#         39227
  C:A14CH         LINE#         39228
  C:A14DH         LINE#         39229
  C:A14EH         LINE#         39230
  C:A14FH         LINE#         39231
  C:A151H         LINE#         39232
  C:A152H         LINE#         39233
  C:A153H         LINE#         39234
  C:A154H         LINE#         39235
  C:A155H         LINE#         39236
  C:A156H         LINE#         39237
  C:A157H         LINE#         39238
  C:A159H         LINE#         39239
  C:A15AH         LINE#         39240
  C:A15BH         LINE#         39241
  C:A15DH         LINE#         39242
  C:A15EH         LINE#         39243
  C:A15FH         LINE#         39244
  C:A161H         LINE#         39245
BL51 BANKED LINKER/LOCATER V5.12                                                      02/19/2014  16:34:22  PAGE 51


  C:A162H         LINE#         39246
  C:A164H         LINE#         39247
  C:A166H         LINE#         39248
  C:A168H         LINE#         39249
  C:A16AH         LINE#         39250
  C:A16CH         LINE#         39251
  C:A16EH         LINE#         39252
  C:A171H         LINE#         39255
  C:A173H         LINE#         39256
  C:A174H         LINE#         39257
  C:A175H         LINE#         39258
  C:A176H         LINE#         39259
  C:A177H         LINE#         39260
  C:A179H         LINE#         39261
  C:A17AH         LINE#         39262
  C:A17BH         LINE#         39263
  C:A17CH         LINE#         39264
  C:A17DH         LINE#         39265
  C:A17EH         LINE#         39266
  C:A180H         LINE#         39267
  C:A181H         LINE#         39268
  C:A182H         LINE#         39269
  C:A183H         LINE#         39270
  C:A184H         LINE#         39271
  C:A186H         LINE#         39272
  C:A187H         LINE#         39273
  C:A188H         LINE#         39274
  C:A189H         LINE#         39275
  C:A18AH         LINE#         39276
  C:A18BH         LINE#         39277
  C:A18CH         LINE#         39278
  C:A18EH         LINE#         39279
  C:A18FH         LINE#         39280
  C:A190H         LINE#         39281
  C:A192H         LINE#         39282
  C:A193H         LINE#         39283
  C:A194H         LINE#         39284
  C:A196H         LINE#         39285
  C:A197H         LINE#         39286
  C:A198H         LINE#         39287
  C:A199H         LINE#         39288
  C:A19AH         LINE#         39289
  C:A19CH         LINE#         39290
  C:A19DH         LINE#         39291
  C:A19FH         LINE#         39292
  C:A1A0H         LINE#         39293
  C:9526H         LINE#         39311
  C:9528H         LINE#         39312
  C:9529H         LINE#         39313
  C:952AH         LINE#         39314
  C:952BH         LINE#         39315
  C:952CH         LINE#         39316
  C:952EH         LINE#         39317
  C:952FH         LINE#         39318
  C:9530H         LINE#         39319
  C:9531H         LINE#         39320
  C:9532H         LINE#         39321
BL51 BANKED LINKER/LOCATER V5.12                                                      02/19/2014  16:34:22  PAGE 52


  C:9533H         LINE#         39322
  C:9535H         LINE#         39323
  C:9536H         LINE#         39324
  C:9537H         LINE#         39325
  C:9538H         LINE#         39326
  C:9539H         LINE#         39327
  C:953BH         LINE#         39328
  C:953CH         LINE#         39329
  C:953DH         LINE#         39330
  C:953EH         LINE#         39331
  C:953FH         LINE#         39332
  C:9540H         LINE#         39333
  C:9542H         LINE#         39334
  C:9543H         LINE#         39335
  C:9545H         LINE#         39336
  C:9546H         LINE#         39337
  C:9547H         LINE#         39338
  C:9548H         LINE#         39339
  C:9549H         LINE#         39340
  C:954BH         LINE#         39341
  C:954CH         LINE#         39342
  C:954EH         LINE#         39343
  C:954FH         LINE#         39344
  C:9552H         LINE#         39347
  C:9554H         LINE#         39348
  C:9555H         LINE#         39349
  C:9556H         LINE#         39350
  C:9557H         LINE#         39351
  C:9558H         LINE#         39352
  C:955AH         LINE#         39353
  C:955BH         LINE#         39354
  C:955CH         LINE#         39355
  C:955DH         LINE#         39356
  C:955EH         LINE#         39357
  C:955FH         LINE#         39358
  C:9561H         LINE#         39359
  C:9562H         LINE#         39360
  C:9563H         LINE#         39361
  C:9564H         LINE#         39362
  C:9565H         LINE#         39363
  C:9567H         LINE#         39364
  C:9568H         LINE#         39365
  C:9569H         LINE#         39366
  C:956AH         LINE#         39367
  C:956BH         LINE#         39368
  C:956CH         LINE#         39369
  C:956EH         LINE#         39370
  C:956FH         LINE#         39371
  C:9571H         LINE#         39372
  C:9572H         LINE#         39373
  C:9573H         LINE#         39374
  C:9574H         LINE#         39375
  C:9575H         LINE#         39376
  C:9577H         LINE#         39377
  C:9578H         LINE#         39378
  C:957AH         LINE#         39379
  C:957BH         LINE#         39380
BL51 BANKED LINKER/LOCATER V5.12                                                      02/19/2014  16:34:22  PAGE 53


  C:957EH         LINE#         39383
  C:9580H         LINE#         39384
  C:9581H         LINE#         39385
  C:9582H         LINE#         39386
  C:9583H         LINE#         39387
  C:9584H         LINE#         39388
  C:9586H         LINE#         39389
  C:9587H         LINE#         39390
  C:9588H         LINE#         39391
  C:9589H         LINE#         39392
  C:958AH         LINE#         39393
  C:958BH         LINE#         39394
  C:958DH         LINE#         39395
  C:958EH         LINE#         39396
  C:958FH         LINE#         39397
  C:9590H         LINE#         39398
  C:9591H         LINE#         39399
  C:9593H         LINE#         39400
  C:9594H         LINE#         39401
  C:9595H         LINE#         39402
  C:9596H         LINE#         39403
  C:9597H         LINE#         39404
  C:9598H         LINE#         39405
  C:959AH         LINE#         39406
  C:959BH         LINE#         39407
  C:959DH         LINE#         39408
  C:959EH         LINE#         39409
  C:959FH         LINE#         39410
  C:95A0H         LINE#         39411
  C:95A1H         LINE#         39412
  C:95A3H         LINE#         39413
  C:95A4H         LINE#         39414
  C:95A6H         LINE#         39415
  C:95A7H         LINE#         39416
  C:95AAH         LINE#         39419
  C:95ACH         LINE#         39420
  C:95ADH         LINE#         39421
  C:95AEH         LINE#         39422
  C:95AFH         LINE#         39423
  C:95B0H         LINE#         39424
  C:95B2H         LINE#         39425
  C:95B3H         LINE#         39426
  C:95B4H         LINE#         39427
  C:95B5H         LINE#         39428
  C:95B6H         LINE#         39429
  C:95B7H         LINE#         39430
  C:95B9H         LINE#         39431
  C:95BAH         LINE#         39432
  C:95BBH         LINE#         39433
  C:95BCH         LINE#         39434
  C:95BDH         LINE#         39435
  C:95BFH         LINE#         39436
  C:95C0H         LINE#         39437
  C:95C1H         LINE#         39438
  C:95C2H         LINE#         39439
  C:95C3H         LINE#         39440
  C:95C4H         LINE#         39441
BL51 BANKED LINKER/LOCATER V5.12                                                      02/19/2014  16:34:22  PAGE 54


  C:95C6H         LINE#         39442
  C:95C7H         LINE#         39443
  C:95C9H         LINE#         39444
  C:95CAH         LINE#         39445
  C:95CBH         LINE#         39446
  C:95CCH         LINE#         39447
  C:95CDH         LINE#         39448
  C:95CFH         LINE#         39449
  C:95D0H         LINE#         39450
  C:95D2H         LINE#         39451
  C:95D3H         LINE#         39452
  C:95D6H         LINE#         39456
  C:95D8H         LINE#         39457
  C:95D9H         LINE#         39458
  C:95DAH         LINE#         39459
  C:95DBH         LINE#         39460
  C:95DCH         LINE#         39461
  C:95DEH         LINE#         39462
  C:95DFH         LINE#         39463
  C:95E0H         LINE#         39464
  C:95E1H         LINE#         39465
  C:95E2H         LINE#         39466
  C:95E3H         LINE#         39467
  C:95E5H         LINE#         39468
  C:95E6H         LINE#         39469
  C:95E7H         LINE#         39470
  C:95E8H         LINE#         39471
  C:95E9H         LINE#         39472
  C:95EBH         LINE#         39473
  C:95ECH         LINE#         39474
  C:95EDH         LINE#         39475
  C:95EEH         LINE#         39476
  C:95EFH         LINE#         39477
  C:95F0H         LINE#         39478
  C:95F2H         LINE#         39479
  C:95F3H         LINE#         39480
  C:95F5H         LINE#         39481
  C:95F6H         LINE#         39482
  C:95F7H         LINE#         39483
  C:95F8H         LINE#         39484
  C:95F9H         LINE#         39485
  C:95FBH         LINE#         39486
  C:95FCH         LINE#         39487
  C:95FEH         LINE#         39488
  C:95FFH         LINE#         39489
  C:9602H         LINE#         39492
  C:9604H         LINE#         39493
  C:9605H         LINE#         39494
  C:9606H         LINE#         39495
  C:9607H         LINE#         39496
  C:9608H         LINE#         39497
  C:960AH         LINE#         39498
  C:960BH         LINE#         39499
  C:960CH         LINE#         39500
  C:960DH         LINE#         39501
  C:960EH         LINE#         39502
  C:960FH         LINE#         39503
BL51 BANKED LINKER/LOCATER V5.12                                                      02/19/2014  16:34:22  PAGE 55


  C:9611H         LINE#         39504
  C:9612H         LINE#         39505
  C:9613H         LINE#         39506
  C:9614H         LINE#         39507
  C:9615H         LINE#         39508
  C:9617H         LINE#         39509
  C:9618H         LINE#         39510
  C:9619H         LINE#         39511
  C:961AH         LINE#         39512
  C:961BH         LINE#         39513
  C:961CH         LINE#         39514
  C:961EH         LINE#         39515
  C:961FH         LINE#         39516
  C:9621H         LINE#         39517
  C:9622H         LINE#         39518
  C:9623H         LINE#         39519
  C:9624H         LINE#         39520
  C:9625H         LINE#         39521
  C:9627H         LINE#         39522
  C:9628H         LINE#         39523
  C:962AH         LINE#         39524
  C:962BH         LINE#         39525
  C:962EH         LINE#         39529
  C:9630H         LINE#         39530
  C:9631H         LINE#         39531
  C:9632H         LINE#         39532
  C:9633H         LINE#         39533
  C:9634H         LINE#         39534
  C:9636H         LINE#         39535
  C:9637H         LINE#         39536
  C:9638H         LINE#         39537
  C:9639H         LINE#         39538
  C:963AH         LINE#         39539
  C:963BH         LINE#         39540
  C:963DH         LINE#         39541
  C:963EH         LINE#         39542
  C:963FH         LINE#         39543
  C:9640H         LINE#         39544
  C:9641H         LINE#         39545
  C:9643H         LINE#         39546
  C:9644H         LINE#         39547
  C:9645H         LINE#         39548
  C:9646H         LINE#         39549
  C:9647H         LINE#         39550
  C:9648H         LINE#         39551
  C:964AH         LINE#         39552
  C:964BH         LINE#         39553
  C:964DH         LINE#         39554
  C:964EH         LINE#         39555
  C:964FH         LINE#         39556
  C:9650H         LINE#         39557
  C:9651H         LINE#         39558
  C:9653H         LINE#         39559
  C:9654H         LINE#         39560
  C:9656H         LINE#         39561
  C:9657H         LINE#         39562
  C:965AH         LINE#         39565
BL51 BANKED LINKER/LOCATER V5.12                                                      02/19/2014  16:34:22  PAGE 56


  C:965CH         LINE#         39566
  C:965DH         LINE#         39567
  C:965EH         LINE#         39568
  C:965FH         LINE#         39569
  C:9660H         LINE#         39570
  C:9662H         LINE#         39571
  C:9663H         LINE#         39572
  C:9664H         LINE#         39573
  C:9665H         LINE#         39574
  C:9666H         LINE#         39575
  C:9667H         LINE#         39576
  C:9669H         LINE#         39577
  C:966AH         LINE#         39578
  C:966BH         LINE#         39579
  C:966CH         LINE#         39580
  C:966DH         LINE#         39581
  C:966FH         LINE#         39582
  C:9670H         LINE#         39583
  C:9671H         LINE#         39584
  C:9672H         LINE#         39585
  C:9673H         LINE#         39586
  C:9674H         LINE#         39587
  C:9676H         LINE#         39588
  C:9677H         LINE#         39589
  C:9679H         LINE#         39590
  C:967AH         LINE#         39591
  C:967BH         LINE#         39592
  C:967CH         LINE#         39593
  C:967DH         LINE#         39594
  C:967FH         LINE#         39595
  C:9681H         LINE#         39596
  C:9683H         LINE#         39597
  C:9684H         LINE#         39598
  C:9687H         LINE#         39602
  C:9689H         LINE#         39603
  C:968AH         LINE#         39604
  C:968CH         LINE#         39605
  C:968FH         LINE#         39610
  C:9690H         LINE#         39611
  C:9691H         LINE#         39612
  C:9692H         LINE#         39613
  C:9693H         LINE#         39614
  C:9695H         LINE#         39615
  C:9696H         LINE#         39616
  C:9697H         LINE#         39617
  C:9698H         LINE#         39618
  C:9699H         LINE#         39619
  C:969AH         LINE#         39620
  C:969CH         LINE#         39621
  C:969DH         LINE#         39622
  C:969EH         LINE#         39623
  C:969FH         LINE#         39624
  C:96A0H         LINE#         39625
  C:96A2H         LINE#         39626
  C:96A3H         LINE#         39627
  C:96A4H         LINE#         39628
  C:96A5H         LINE#         39629
BL51 BANKED LINKER/LOCATER V5.12                                                      02/19/2014  16:34:22  PAGE 57


  C:96A6H         LINE#         39630
  C:96A7H         LINE#         39631
  C:96A8H         LINE#         39632
  C:96AAH         LINE#         39633
  C:96ABH         LINE#         39634
  C:96ACH         LINE#         39635
  C:96AEH         LINE#         39636
  C:96AFH         LINE#         39637
  C:96B0H         LINE#         39638
  C:96B2H         LINE#         39641
  C:96B4H         LINE#         39648
  C:96B5H         LINE#         39649
  C:96B6H         LINE#         39650
  C:96B7H         LINE#         39651
  C:96B8H         LINE#         39652
  C:96BAH         LINE#         39653
  C:96BBH         LINE#         39654
  C:96BCH         LINE#         39655
  C:96BDH         LINE#         39656
  C:96BEH         LINE#         39657
  C:96BFH         LINE#         39658
  C:96C1H         LINE#         39659
  C:96C2H         LINE#         39660
  C:96C3H         LINE#         39661
  C:96C4H         LINE#         39662
  C:96C5H         LINE#         39663
  C:96C7H         LINE#         39664
  C:96C8H         LINE#         39665
  C:96C9H         LINE#         39666
  C:96CAH         LINE#         39667
  C:96CBH         LINE#         39668
  C:96CCH         LINE#         39669
  C:96CDH         LINE#         39670
  C:96CFH         LINE#         39671
  C:96D0H         LINE#         39672
  C:96D1H         LINE#         39673
  C:96D3H         LINE#         39674
  C:96D4H         LINE#         39675
  C:96D5H         LINE#         39676
  C:96D7H         LINE#         39678
  C:96D8H         LINE#         39679
  C:96DAH         LINE#         39680
  C:96DCH         LINE#         39681
  C:96DEH         LINE#         39682
  C:96E1H         LINE#         39689
  C:96E3H         LINE#         39690
  C:96E4H         LINE#         39691
  C:96E6H         LINE#         39692
  C:96E9H         LINE#         39697
  C:96EAH         LINE#         39698
  C:96EBH         LINE#         39699
  C:96ECH         LINE#         39700
  C:96EDH         LINE#         39701
  C:96EFH         LINE#         39702
  C:96F0H         LINE#         39703
  C:96F1H         LINE#         39704
  C:96F2H         LINE#         39705
BL51 BANKED LINKER/LOCATER V5.12                                                      02/19/2014  16:34:22  PAGE 58


  C:96F3H         LINE#         39706
  C:96F4H         LINE#         39707
  C:96F6H         LINE#         39708
  C:96F7H         LINE#         39709
  C:96F8H         LINE#         39710
  C:96F9H         LINE#         39711
  C:96FAH         LINE#         39712
  C:96FCH         LINE#         39713
  C:96FDH         LINE#         39714
  C:96FEH         LINE#         39715
  C:96FFH         LINE#         39716
  C:9700H         LINE#         39717
  C:9701H         LINE#         39718
  C:9702H         LINE#         39719
  C:9704H         LINE#         39720
  C:9705H         LINE#         39721
  C:9706H         LINE#         39722
  C:9708H         LINE#         39723
  C:9709H         LINE#         39724
  C:970AH         LINE#         39725
  C:970CH         LINE#         39728
  C:970EH         LINE#         39735
  C:970FH         LINE#         39736
  C:9710H         LINE#         39737
  C:9711H         LINE#         39738
  C:9712H         LINE#         39739
  C:9714H         LINE#         39740
  C:9715H         LINE#         39741
  C:9716H         LINE#         39742
  C:9717H         LINE#         39743
  C:9718H         LINE#         39744
  C:9719H         LINE#         39745
  C:971BH         LINE#         39746
  C:971CH         LINE#         39747
  C:971DH         LINE#         39748
  C:971EH         LINE#         39749
  C:971FH         LINE#         39750
  C:9721H         LINE#         39751
  C:9722H         LINE#         39752
  C:9723H         LINE#         39753
  C:9724H         LINE#         39754
  C:9725H         LINE#         39755
  C:9726H         LINE#         39756
  C:9727H         LINE#         39757
  C:9729H         LINE#         39758
  C:972AH         LINE#         39759
  C:972BH         LINE#         39760
  C:972DH         LINE#         39761
  C:972EH         LINE#         39762
  C:972FH         LINE#         39763
  C:9731H         LINE#         39765
  C:9732H         LINE#         39766
  C:9734H         LINE#         39767
  C:9736H         LINE#         39768
  C:9738H         LINE#         39769
  C:973AH         LINE#         39770
  C:973CH         LINE#         39771
BL51 BANKED LINKER/LOCATER V5.12                                                      02/19/2014  16:34:22  PAGE 59


  C:973EH         LINE#         39772
  C:9741H         LINE#         39779
  C:9743H         LINE#         39780
  C:9744H         LINE#         39781
  C:9745H         LINE#         39782
  C:9746H         LINE#         39783
  C:9747H         LINE#         39784
  C:9749H         LINE#         39785
  C:974AH         LINE#         39786
  C:974BH         LINE#         39787
  C:974CH         LINE#         39788
  C:974DH         LINE#         39789
  C:974EH         LINE#         39790
  C:9750H         LINE#         39791
  C:9751H         LINE#         39792
  C:9752H         LINE#         39793
  C:9753H         LINE#         39794
  C:9754H         LINE#         39795
  C:9756H         LINE#         39796
  C:9757H         LINE#         39797
  C:9758H         LINE#         39798
  C:9759H         LINE#         39799
  C:975AH         LINE#         39800
  C:975BH         LINE#         39801
  C:975DH         LINE#         39802
  C:975EH         LINE#         39803
  C:9760H         LINE#         39804
  C:9761H         LINE#         39805
  C:9763H         LINE#         39806
  C:9766H         LINE#         39809
  C:9768H         LINE#         39810
  C:9769H         LINE#         39811
  C:976AH         LINE#         39812
  C:976BH         LINE#         39813
  C:976CH         LINE#         39814
  C:976EH         LINE#         39815
  C:976FH         LINE#         39816
  C:9770H         LINE#         39817
  C:9771H         LINE#         39818
  C:9772H         LINE#         39819
  C:9773H         LINE#         39820
  C:9775H         LINE#         39821
  C:9776H         LINE#         39822
  C:9777H         LINE#         39823
  C:9778H         LINE#         39824
  C:9779H         LINE#         39825
  C:977BH         LINE#         39826
  C:977CH         LINE#         39827
  C:977DH         LINE#         39828
  C:977EH         LINE#         39829
  C:977FH         LINE#         39830
  C:9780H         LINE#         39831
  C:9782H         LINE#         39832
  C:9783H         LINE#         39833
  C:9785H         LINE#         39834
  C:9786H         LINE#         39835
  C:9787H         LINE#         39836
BL51 BANKED LINKER/LOCATER V5.12                                                      02/19/2014  16:34:22  PAGE 60


  C:9788H         LINE#         39837
  C:9789H         LINE#         39838
  C:978BH         LINE#         39839
  C:978CH         LINE#         39840
  C:978EH         LINE#         39841
  C:978FH         LINE#         39842
  C:9792H         LINE#         39846
  C:9794H         LINE#         39847
  C:9795H         LINE#         39848
  C:9796H         LINE#         39849
  C:9797H         LINE#         39850
  C:9798H         LINE#         39851
  C:979AH         LINE#         39852
  C:979BH         LINE#         39853
  C:979CH         LINE#         39854
  C:979DH         LINE#         39855
  C:979EH         LINE#         39856
  C:979FH         LINE#         39857
  C:97A1H         LINE#         39858
  C:97A2H         LINE#         39859
  C:97A3H         LINE#         39860
  C:97A4H         LINE#         39861
  C:97A5H         LINE#         39862
  C:97A7H         LINE#         39863
  C:97A8H         LINE#         39864
  C:97A9H         LINE#         39865
  C:97AAH         LINE#         39866
  C:97ABH         LINE#         39867
  C:97ACH         LINE#         39868
  C:97AEH         LINE#         39869
  C:97AFH         LINE#         39870
  C:97B1H         LINE#         39871
  C:97B2H         LINE#         39872
  C:97B3H         LINE#         39873
  C:97B4H         LINE#         39874
  C:97B5H         LINE#         39875
  C:97B7H         LINE#         39876
  C:97B8H         LINE#         39877
  C:97BAH         LINE#         39878
  C:97BBH         LINE#         39879
  C:97BEH         LINE#         39882
  C:97C0H         LINE#         39883
  C:97C1H         LINE#         39884
  C:97C2H         LINE#         39885
  C:97C3H         LINE#         39886
  C:97C4H         LINE#         39887
  C:97C6H         LINE#         39888
  C:97C7H         LINE#         39889
  C:97C8H         LINE#         39890
  C:97C9H         LINE#         39891
  C:97CAH         LINE#         39892
  C:97CBH         LINE#         39893
  C:97CDH         LINE#         39894
  C:97CEH         LINE#         39895
  C:97CFH         LINE#         39896
  C:97D0H         LINE#         39897
  C:97D1H         LINE#         39898
BL51 BANKED LINKER/LOCATER V5.12                                                      02/19/2014  16:34:22  PAGE 61


  C:97D3H         LINE#         39899
  C:97D4H         LINE#         39900
  C:97D5H         LINE#         39901
  C:97D6H         LINE#         39902
  C:97D7H         LINE#         39903
  C:97D8H         LINE#         39904
  C:97DAH         LINE#         39905
  C:97DBH         LINE#         39906
  C:97DDH         LINE#         39907
  C:97DEH         LINE#         39908
  C:97DFH         LINE#         39909
  C:97E0H         LINE#         39910
  C:97E1H         LINE#         39911
  C:97E3H         LINE#         39912
  C:97E4H         LINE#         39913
  C:97E6H         LINE#         39914
  C:97E7H         LINE#         39915
  C:97EAH         LINE#         39919
  C:97ECH         LINE#         39920
  C:97EDH         LINE#         39921
  C:97EEH         LINE#         39922
  C:97EFH         LINE#         39923
  C:97F0H         LINE#         39924
  C:97F2H         LINE#         39925
  C:97F3H         LINE#         39926
  C:97F4H         LINE#         39927
  C:97F5H         LINE#         39928
  C:97F6H         LINE#         39929
  C:97F7H         LINE#         39930
  C:97F9H         LINE#         39931
  C:97FAH         LINE#         39932
  C:97FBH         LINE#         39933
  C:97FCH         LINE#         39934
  C:97FDH         LINE#         39935
  C:97FFH         LINE#         39936
  C:9800H         LINE#         39937
  C:9801H         LINE#         39938
  C:9802H         LINE#         39939
  C:9803H         LINE#         39940
  C:9804H         LINE#         39941
  C:9806H         LINE#         39942
  C:9807H         LINE#         39943
  C:9809H         LINE#         39944
  C:980AH         LINE#         39945
  C:980BH         LINE#         39946
  C:980CH         LINE#         39947
  C:980DH         LINE#         39948
  C:980FH         LINE#         39949
  C:9810H         LINE#         39950
  C:9812H         LINE#         39951
  C:9813H         LINE#         39952
  C:9816H         LINE#         39955
  C:9818H         LINE#         39956
  C:9819H         LINE#         39957
  C:981AH         LINE#         39958
  C:981BH         LINE#         39959
  C:981CH         LINE#         39960
BL51 BANKED LINKER/LOCATER V5.12                                                      02/19/2014  16:34:22  PAGE 62


  C:981EH         LINE#         39961
  C:981FH         LINE#         39962
  C:9820H         LINE#         39963
  C:9821H         LINE#         39964
  C:9822H         LINE#         39965
  C:9823H         LINE#         39966
  C:9825H         LINE#         39967
  C:9826H         LINE#         39968
  C:9827H         LINE#         39969
  C:9828H         LINE#         39970
  C:9829H         LINE#         39971
  C:982BH         LINE#         39972
  C:982CH         LINE#         39973
  C:982DH         LINE#         39974
  C:982EH         LINE#         39975
  C:982FH         LINE#         39976
  C:9830H         LINE#         39977
  C:9832H         LINE#         39978
  C:9833H         LINE#         39979
  C:9835H         LINE#         39980
  C:9836H         LINE#         39981
  C:9837H         LINE#         39982
  C:9838H         LINE#         39983
  C:9839H         LINE#         39984
  C:983BH         LINE#         39985
  C:983CH         LINE#         39986
  C:983EH         LINE#         39987
  C:983FH         LINE#         39988
  C:9842H         LINE#         39991
  C:9844H         LINE#         39992
  C:9845H         LINE#         39993
  C:9846H         LINE#         39994
  C:9847H         LINE#         39995
  C:9848H         LINE#         39996
  C:984AH         LINE#         39997
  C:984BH         LINE#         39998
  C:984CH         LINE#         39999
  C:984DH         LINE#         40000
  C:984EH         LINE#         40001
  C:984FH         LINE#         40002
  C:9851H         LINE#         40003
  C:9852H         LINE#         40004
  C:9853H         LINE#         40005
  C:9854H         LINE#         40006
  C:9855H         LINE#         40007
  C:9857H         LINE#         40008
  C:9858H         LINE#         40009
  C:9859H         LINE#         40010
  C:985AH         LINE#         40011
  C:985BH         LINE#         40012
  C:985CH         LINE#         40013
  C:985EH         LINE#         40014
  C:985FH         LINE#         40015
  C:9861H         LINE#         40016
  C:9862H         LINE#         40017
  C:9863H         LINE#         40018
  C:9864H         LINE#         40019
BL51 BANKED LINKER/LOCATER V5.12                                                      02/19/2014  16:34:22  PAGE 63


  C:9865H         LINE#         40020
  C:9867H         LINE#         40021
  C:9868H         LINE#         40022
  C:986AH         LINE#         40023
  C:986BH         LINE#         40024
  C:986EH         LINE#         40028
  C:9870H         LINE#         40029
  C:9871H         LINE#         40030
  C:9872H         LINE#         40031
  C:9873H         LINE#         40032
  C:9874H         LINE#         40033
  C:9876H         LINE#         40034
  C:9877H         LINE#         40035
  C:9878H         LINE#         40036
  C:9879H         LINE#         40037
  C:987AH         LINE#         40038
  C:987BH         LINE#         40039
  C:987DH         LINE#         40040
  C:987EH         LINE#         40041
  C:987FH         LINE#         40042
  C:9880H         LINE#         40043
  C:9881H         LINE#         40044
  C:9883H         LINE#         40045
  C:9884H         LINE#         40046
  C:9885H         LINE#         40047
  C:9886H         LINE#         40048
  C:9887H         LINE#         40049
  C:9888H         LINE#         40050
  C:988AH         LINE#         40051
  C:988BH         LINE#         40052
  C:988DH         LINE#         40053
  C:988EH         LINE#         40054
  C:988FH         LINE#         40055
  C:9890H         LINE#         40056
  C:9891H         LINE#         40057
  C:9893H         LINE#         40058
  C:9894H         LINE#         40059
  C:9896H         LINE#         40060
  C:9897H         LINE#         40061
  C:989AH         LINE#         40064
  C:989CH         LINE#         40065
  C:989DH         LINE#         40066
  C:989EH         LINE#         40067
  C:989FH         LINE#         40068
  C:98A0H         LINE#         40069
  C:98A2H         LINE#         40070
  C:98A3H         LINE#         40071
  C:98A4H         LINE#         40072
  C:98A5H         LINE#         40073
  C:98A6H         LINE#         40074
  C:98A7H         LINE#         40075
  C:98A9H         LINE#         40076
  C:98AAH         LINE#         40077
  C:98ABH         LINE#         40078
  C:98ACH         LINE#         40079
  C:98ADH         LINE#         40080
  C:98AFH         LINE#         40081
BL51 BANKED LINKER/LOCATER V5.12                                                      02/19/2014  16:34:22  PAGE 64


  C:98B0H         LINE#         40082
  C:98B1H         LINE#         40083
  C:98B2H         LINE#         40084
  C:98B3H         LINE#         40085
  C:98B4H         LINE#         40086
  C:98B6H         LINE#         40087
  C:98B7H         LINE#         40088
  C:98B9H         LINE#         40089
  C:98BAH         LINE#         40090
  C:98BBH         LINE#         40091
  C:98BCH         LINE#         40092
  C:98BDH         LINE#         40093
  C:98BFH         LINE#         40094
  C:98C0H         LINE#         40095
  C:98C2H         LINE#         40096
  C:98C3H         LINE#         40097
  C:98C6H         LINE#         40100
  C:98C8H         LINE#         40101
  C:98C9H         LINE#         40102
  C:98CAH         LINE#         40103
  C:98CBH         LINE#         40104
  C:98CCH         LINE#         40105
  C:98CEH         LINE#         40106
  C:98CFH         LINE#         40107
  C:98D0H         LINE#         40108
  C:98D1H         LINE#         40109
  C:98D2H         LINE#         40110
  C:98D3H         LINE#         40111
  C:98D5H         LINE#         40112
  C:98D6H         LINE#         40113
  C:98D7H         LINE#         40114
  C:98D8H         LINE#         40115
  C:98D9H         LINE#         40116
  C:98DBH         LINE#         40117
  C:98DCH         LINE#         40118
  C:98DDH         LINE#         40119
  C:98DEH         LINE#         40120
  C:98DFH         LINE#         40121
  C:98E0H         LINE#         40122
  C:98E2H         LINE#         40123
  C:98E3H         LINE#         40124
  C:98E5H         LINE#         40125
  C:98E6H         LINE#         40126
  C:98E7H         LINE#         40127
  C:98E8H         LINE#         40128
  C:98E9H         LINE#         40129
  C:98EAH         LINE#         40130
  C:98ECH         LINE#         40131
  C:98EEH         LINE#         40132
  C:98EFH         LINE#         40133
  C:98F2H         LINE#         40137
  C:98F4H         LINE#         40138
  C:98F5H         LINE#         40139
  C:98F6H         LINE#         40140
  C:98F7H         LINE#         40141
  C:98F8H         LINE#         40142
  C:98FAH         LINE#         40143
BL51 BANKED LINKER/LOCATER V5.12                                                      02/19/2014  16:34:22  PAGE 65


  C:98FBH         LINE#         40144
  C:98FCH         LINE#         40145
  C:98FDH         LINE#         40146
  C:98FEH         LINE#         40147
  C:98FFH         LINE#         40148
  C:9901H         LINE#         40149
  C:9902H         LINE#         40150
  C:9903H         LINE#         40151
  C:9904H         LINE#         40152
  C:9905H         LINE#         40153
  C:9907H         LINE#         40154
  C:9908H         LINE#         40155
  C:9909H         LINE#         40156
  C:990AH         LINE#         40157
  C:990BH         LINE#         40158
  C:990CH         LINE#         40159
  C:990EH         LINE#         40160
  C:990FH         LINE#         40161
  C:9911H         LINE#         40162
  C:9912H         LINE#         40163
  C:9913H         LINE#         40164
  C:9914H         LINE#         40165
  C:9915H         LINE#         40166
  C:9917H         LINE#         40167
  C:9918H         LINE#         40168
  C:991AH         LINE#         40169
  C:991BH         LINE#         40170
  C:991EH         LINE#         40173
  C:9920H         LINE#         40174
  C:9921H         LINE#         40175
  C:9922H         LINE#         40176
  C:9923H         LINE#         40177
  C:9924H         LINE#         40178
  C:9926H         LINE#         40179
  C:9927H         LINE#         40180
  C:9928H         LINE#         40181
  C:9929H         LINE#         40182
  C:992AH         LINE#         40183
  C:992BH         LINE#         40184
  C:992DH         LINE#         40185
  C:992EH         LINE#         40186
  C:992FH         LINE#         40187
  C:9930H         LINE#         40188
  C:9931H         LINE#         40189
  C:9933H         LINE#         40190
  C:9934H         LINE#         40191
  C:9935H         LINE#         40192
  C:9936H         LINE#         40193
  C:9937H         LINE#         40194
  C:9938H         LINE#         40195
  C:993AH         LINE#         40196
  C:993BH         LINE#         40197
  C:993DH         LINE#         40198
  C:993EH         LINE#         40199
  C:993FH         LINE#         40200
  C:9940H         LINE#         40201
  C:9941H         LINE#         40202
BL51 BANKED LINKER/LOCATER V5.12                                                      02/19/2014  16:34:22  PAGE 66


  C:9943H         LINE#         40203
  C:9944H         LINE#         40204
  C:9946H         LINE#         40205
  C:9947H         LINE#         40206
  C:994AH         LINE#         40210
  C:994CH         LINE#         40211
  C:994DH         LINE#         40212
  C:994EH         LINE#         40213
  C:994FH         LINE#         40214
  C:9950H         LINE#         40215
  C:9952H         LINE#         40216
  C:9953H         LINE#         40217
  C:9954H         LINE#         40218
  C:9955H         LINE#         40219
  C:9956H         LINE#         40220
  C:9957H         LINE#         40221
  C:9959H         LINE#         40222
  C:995AH         LINE#         40223
  C:995BH         LINE#         40224
  C:995CH         LINE#         40225
  C:995DH         LINE#         40226
  C:995FH         LINE#         40227
  C:9960H         LINE#         40228
  C:9961H         LINE#         40229
  C:9962H         LINE#         40230
  C:9963H         LINE#         40231
  C:9964H         LINE#         40232
  C:9966H         LINE#         40233
  C:9967H         LINE#         40234
  C:9969H         LINE#         40235
  C:996AH         LINE#         40236
  C:996BH         LINE#         40237
  C:996CH         LINE#         40238
  C:996DH         LINE#         40239
  C:996FH         LINE#         40240
  C:9970H         LINE#         40241
  C:9972H         LINE#         40242
  C:9973H         LINE#         40243
  C:9976H         LINE#         40246
  C:9978H         LINE#         40247
  C:9979H         LINE#         40248
  C:997AH         LINE#         40249
  C:997BH         LINE#         40250
  C:997CH         LINE#         40251
  C:997EH         LINE#         40252
  C:997FH         LINE#         40253
  C:9980H         LINE#         40254
  C:9981H         LINE#         40255
  C:9982H         LINE#         40256
  C:9983H         LINE#         40257
  C:9985H         LINE#         40258
  C:9986H         LINE#         40259
  C:9987H         LINE#         40260
  C:9988H         LINE#         40261
  C:9989H         LINE#         40262
  C:998BH         LINE#         40263
  C:998CH         LINE#         40264
BL51 BANKED LINKER/LOCATER V5.12                                                      02/19/2014  16:34:22  PAGE 67


  C:998DH         LINE#         40265
  C:998EH         LINE#         40266
  C:998FH         LINE#         40267
  C:9990H         LINE#         40268
  C:9992H         LINE#         40269
  C:9993H         LINE#         40270
  C:9995H         LINE#         40271
  C:9996H         LINE#         40272
  C:9997H         LINE#         40273
  C:9998H         LINE#         40274
  C:9999H         LINE#         40275
  C:999BH         LINE#         40276
  C:999CH         LINE#         40277
  C:999EH         LINE#         40278
  C:999FH         LINE#         40279
  C:99A2H         LINE#         40282
  C:99A4H         LINE#         40283
  C:99A5H         LINE#         40284
  C:99A6H         LINE#         40285
  C:99A7H         LINE#         40286
  C:99A8H         LINE#         40287
  C:99AAH         LINE#         40288
  C:99ABH         LINE#         40289
  C:99ACH         LINE#         40290
  C:99ADH         LINE#         40291
  C:99AEH         LINE#         40292
  C:99AFH         LINE#         40293
  C:99B1H         LINE#         40294
  C:99B2H         LINE#         40295
  C:99B3H         LINE#         40296
  C:99B4H         LINE#         40297
  C:99B5H         LINE#         40298
  C:99B7H         LINE#         40299
  C:99B8H         LINE#         40300
  C:99B9H         LINE#         40301
  C:99BAH         LINE#         40302
  C:99BBH         LINE#         40303
  C:99BCH         LINE#         40304
  C:99BEH         LINE#         40305
  C:99BFH         LINE#         40306
  C:99C1H         LINE#         40307
  C:99C2H         LINE#         40308
  C:99C3H         LINE#         40309
  C:99C4H         LINE#         40310
  C:99C5H         LINE#         40311
  C:99C6H         LINE#         40312
  C:99C8H         LINE#         40313
  C:99CAH         LINE#         40314
  C:99CBH         LINE#         40315
  C:99CEH         LINE#         40318
  C:99D0H         LINE#         40319
  C:99D1H         LINE#         40320
  C:99D2H         LINE#         40321
  C:99D3H         LINE#         40322
  C:99D4H         LINE#         40323
  C:99D6H         LINE#         40324
  C:99D7H         LINE#         40325
BL51 BANKED LINKER/LOCATER V5.12                                                      02/19/2014  16:34:22  PAGE 68


  C:99D8H         LINE#         40326
  C:99D9H         LINE#         40327
  C:99DAH         LINE#         40328
  C:99DBH         LINE#         40329
  C:99DDH         LINE#         40330
  C:99DEH         LINE#         40331
  C:99DFH         LINE#         40332
  C:99E0H         LINE#         40333
  C:99E1H         LINE#         40334
  C:99E3H         LINE#         40335
  C:99E4H         LINE#         40336
  C:99E5H         LINE#         40337
  C:99E6H         LINE#         40338
  C:99E7H         LINE#         40339
  C:99E8H         LINE#         40340
  C:99EAH         LINE#         40341
  C:99EBH         LINE#         40342
  C:99EDH         LINE#         40343
  C:99EEH         LINE#         40344
  C:99EFH         LINE#         40345
  C:99F0H         LINE#         40346
  C:99F1H         LINE#         40347
  C:99F3H         LINE#         40348
  C:99F5H         LINE#         40349
  C:99F7H         LINE#         40350
  C:99F8H         LINE#         40351
  C:99FBH         LINE#         40354
  C:99FDH         LINE#         40355
  C:99FEH         LINE#         40356
  C:99FFH         LINE#         40357
  C:9A00H         LINE#         40358
  C:9A01H         LINE#         40359
  C:9A03H         LINE#         40360
  C:9A04H         LINE#         40361
  C:9A05H         LINE#         40362
  C:9A06H         LINE#         40363
  C:9A07H         LINE#         40364
  C:9A08H         LINE#         40365
  C:9A0AH         LINE#         40366
  C:9A0BH         LINE#         40367
  C:9A0CH         LINE#         40368
  C:9A0DH         LINE#         40369
  C:9A0EH         LINE#         40370
  C:9A10H         LINE#         40371
  C:9A11H         LINE#         40372
  C:9A12H         LINE#         40373
  C:9A13H         LINE#         40374
  C:9A14H         LINE#         40375
  C:9A15H         LINE#         40376
  C:9A17H         LINE#         40377
  C:9A18H         LINE#         40378
  C:9A1AH         LINE#         40379
  C:9A1BH         LINE#         40380
  C:9A1CH         LINE#         40381
  C:9A1DH         LINE#         40382
  C:9A1EH         LINE#         40383
  C:9A20H         LINE#         40384
BL51 BANKED LINKER/LOCATER V5.12                                                      02/19/2014  16:34:22  PAGE 69


  C:9A22H         LINE#         40385
  C:9A24H         LINE#         40386
  C:9A25H         LINE#         40387
  C:9A28H         LINE#         40391
  C:9A2AH         LINE#         40392
  C:9A2BH         LINE#         40393
  C:9A2CH         LINE#         40394
  C:9A2DH         LINE#         40395
  C:9A2EH         LINE#         40396
  C:9A30H         LINE#         40397
  C:9A31H         LINE#         40398
  C:9A32H         LINE#         40399
  C:9A33H         LINE#         40400
  C:9A34H         LINE#         40401
  C:9A35H         LINE#         40402
  C:9A37H         LINE#         40403
  C:9A38H         LINE#         40404
  C:9A39H         LINE#         40405
  C:9A3AH         LINE#         40406
  C:9A3BH         LINE#         40407
  C:9A3DH         LINE#         40408
  C:9A3EH         LINE#         40409
  C:9A3FH         LINE#         40410
  C:9A40H         LINE#         40411
  C:9A41H         LINE#         40412
  C:9A42H         LINE#         40413
  C:9A44H         LINE#         40414
  C:9A45H         LINE#         40415
  C:9A47H         LINE#         40416
  C:9A48H         LINE#         40417
  C:9A4AH         LINE#         40418
  C:9A4DH         LINE#         40421
  C:9A4FH         LINE#         40422
  C:9A50H         LINE#         40423
  C:9A51H         LINE#         40424
  C:9A52H         LINE#         40425
  C:9A53H         LINE#         40426
  C:9A55H         LINE#         40427
  C:9A56H         LINE#         40428
  C:9A57H         LINE#         40429
  C:9A58H         LINE#         40430
  C:9A59H         LINE#         40431
  C:9A5AH         LINE#         40432
  C:9A5CH         LINE#         40433
  C:9A5DH         LINE#         40434
  C:9A5EH         LINE#         40435
  C:9A5FH         LINE#         40436
  C:9A60H         LINE#         40437
  C:9A62H         LINE#         40438
  C:9A63H         LINE#         40439
  C:9A64H         LINE#         40440
  C:9A65H         LINE#         40441
  C:9A66H         LINE#         40442
  C:9A67H         LINE#         40443
  C:9A69H         LINE#         40444
  C:9A6AH         LINE#         40445
  C:9A6CH         LINE#         40446
BL51 BANKED LINKER/LOCATER V5.12                                                      02/19/2014  16:34:22  PAGE 70


  C:9A6DH         LINE#         40447
  C:9A6EH         LINE#         40448
  C:9A6FH         LINE#         40449
  C:9A70H         LINE#         40450
  C:9A72H         LINE#         40451
  C:9A73H         LINE#         40452
  C:9A75H         LINE#         40453
  C:9A76H         LINE#         40454
  C:9A79H         LINE#         40457
  C:9A7BH         LINE#         40458
  C:9A7CH         LINE#         40459
  C:9A7DH         LINE#         40460
  C:9A7EH         LINE#         40461
  C:9A7FH         LINE#         40462
  C:9A81H         LINE#         40463
  C:9A82H         LINE#         40464
  C:9A83H         LINE#         40465
  C:9A84H         LINE#         40466
  C:9A85H         LINE#         40467
  C:9A86H         LINE#         40468
  C:9A88H         LINE#         40469
  C:9A89H         LINE#         40470
  C:9A8AH         LINE#         40471
  C:9A8BH         LINE#         40472
  C:9A8CH         LINE#         40473
  C:9A8EH         LINE#         40474
  C:9A8FH         LINE#         40475
  C:9A90H         LINE#         40476
  C:9A91H         LINE#         40477
  C:9A92H         LINE#         40478
  C:9A93H         LINE#         40479
  C:9A95H         LINE#         40480
  C:9A96H         LINE#         40481
  C:9A98H         LINE#         40482
  C:9A99H         LINE#         40483
  C:9A9AH         LINE#         40484
  C:9A9BH         LINE#         40485
  C:9A9CH         LINE#         40486
  C:9A9EH         LINE#         40487
  C:9A9FH         LINE#         40488
  C:9AA1H         LINE#         40489
  C:9AA2H         LINE#         40490
  C:9AA5H         LINE#         40493
  C:9AA7H         LINE#         40494
  C:9AA8H         LINE#         40495
  C:9AA9H         LINE#         40496
  C:9AAAH         LINE#         40497
  C:9AABH         LINE#         40498
  C:9AADH         LINE#         40499
  C:9AAEH         LINE#         40500
  C:9AAFH         LINE#         40501
  C:9AB0H         LINE#         40502
  C:9AB1H         LINE#         40503
  C:9AB2H         LINE#         40504
  C:9AB4H         LINE#         40505
  C:9AB5H         LINE#         40506
  C:9AB6H         LINE#         40507
BL51 BANKED LINKER/LOCATER V5.12                                                      02/19/2014  16:34:22  PAGE 71


  C:9AB7H         LINE#         40508
  C:9AB8H         LINE#         40509
  C:9ABAH         LINE#         40510
  C:9ABBH         LINE#         40511
  C:9ABCH         LINE#         40512
  C:9ABDH         LINE#         40513
  C:9ABEH         LINE#         40514
  C:9ABFH         LINE#         40515
  C:9AC1H         LINE#         40516
  C:9AC2H         LINE#         40517
  C:9AC4H         LINE#         40518
  C:9AC5H         LINE#         40519
  C:9AC6H         LINE#         40520
  C:9AC7H         LINE#         40521
  C:9AC8H         LINE#         40522
  C:9ACAH         LINE#         40523
  C:9ACBH         LINE#         40524
  C:9ACDH         LINE#         40525
  C:9ACEH         LINE#         40526
  C:9AD1H         LINE#         40529
  C:9AD3H         LINE#         40530
  C:9AD4H         LINE#         40531
  C:9AD5H         LINE#         40532
  C:9AD6H         LINE#         40533
  C:9AD7H         LINE#         40534
  C:9AD9H         LINE#         40535
  C:9ADAH         LINE#         40536
  C:9ADBH         LINE#         40537
  C:9ADCH         LINE#         40538
  C:9ADDH         LINE#         40539
  C:9ADEH         LINE#         40540
  C:9AE0H         LINE#         40541
  C:9AE1H         LINE#         40542
  C:9AE2H         LINE#         40543
  C:9AE3H         LINE#         40544
  C:9AE4H         LINE#         40545
  C:9AE6H         LINE#         40546
  C:9AE7H         LINE#         40547
  C:9AE8H         LINE#         40548
  C:9AE9H         LINE#         40549
  C:9AEAH         LINE#         40550
  C:9AEBH         LINE#         40551
  C:9AEDH         LINE#         40552
  C:9AEEH         LINE#         40553
  C:9AF0H         LINE#         40554
  C:9AF1H         LINE#         40555
  C:9AF2H         LINE#         40556
  C:9AF3H         LINE#         40557
  C:9AF4H         LINE#         40558
  C:9AF6H         LINE#         40559
  C:9AF7H         LINE#         40560
  C:9AF9H         LINE#         40561
  C:9AFAH         LINE#         40562
  C:9AFDH         LINE#         40565
  C:9AFFH         LINE#         40566
  C:9B00H         LINE#         40567
  C:9B01H         LINE#         40568
BL51 BANKED LINKER/LOCATER V5.12                                                      02/19/2014  16:34:22  PAGE 72


  C:9B02H         LINE#         40569
  C:9B03H         LINE#         40570
  C:9B05H         LINE#         40571
  C:9B06H         LINE#         40572
  C:9B07H         LINE#         40573
  C:9B08H         LINE#         40574
  C:9B09H         LINE#         40575
  C:9B0AH         LINE#         40576
  C:9B0CH         LINE#         40577
  C:9B0DH         LINE#         40578
  C:9B0EH         LINE#         40579
  C:9B0FH         LINE#         40580
  C:9B10H         LINE#         40581
  C:9B12H         LINE#         40582
  C:9B13H         LINE#         40583
  C:9B14H         LINE#         40584
  C:9B15H         LINE#         40585
  C:9B16H         LINE#         40586
  C:9B17H         LINE#         40587
  C:9B19H         LINE#         40588
  C:9B1AH         LINE#         40589
  C:9B1CH         LINE#         40590
  C:9B1DH         LINE#         40591
  C:9B1EH         LINE#         40592
  C:9B1FH         LINE#         40593
  C:9B20H         LINE#         40594
  C:9B22H         LINE#         40595
  C:9B23H         LINE#         40596
  C:9B25H         LINE#         40597
  C:9B26H         LINE#         40598
  C:9B29H         LINE#         40601
  C:9B2BH         LINE#         40602
  C:9B2CH         LINE#         40603
  C:9B2DH         LINE#         40604
  C:9B2EH         LINE#         40605
  C:9B2FH         LINE#         40606
  C:9B31H         LINE#         40607
  C:9B32H         LINE#         40608
  C:9B33H         LINE#         40609
  C:9B34H         LINE#         40610
  C:9B35H         LINE#         40611
  C:9B36H         LINE#         40612
  C:9B38H         LINE#         40613
  C:9B39H         LINE#         40614
  C:9B3AH         LINE#         40615
  C:9B3BH         LINE#         40616
  C:9B3CH         LINE#         40617
  C:9B3EH         LINE#         40618
  C:9B3FH         LINE#         40619
  C:9B40H         LINE#         40620
  C:9B41H         LINE#         40621
  C:9B42H         LINE#         40622
  C:9B43H         LINE#         40623
  C:9B45H         LINE#         40624
  C:9B46H         LINE#         40625
  C:9B48H         LINE#         40626
  C:9B49H         LINE#         40627
BL51 BANKED LINKER/LOCATER V5.12                                                      02/19/2014  16:34:22  PAGE 73


  C:9B4AH         LINE#         40628
  C:9B4BH         LINE#         40629
  C:9B4CH         LINE#         40630
  C:9B4EH         LINE#         40631
  C:9B4FH         LINE#         40632
  C:9B51H         LINE#         40633
  C:9B52H         LINE#         40634
  C:9B55H         LINE#         40637
  C:9B57H         LINE#         40638
  C:9B58H         LINE#         40639
  C:9B59H         LINE#         40640
  C:9B5AH         LINE#         40641
  C:9B5BH         LINE#         40642
  C:9B5DH         LINE#         40643
  C:9B5EH         LINE#         40644
  C:9B5FH         LINE#         40645
  C:9B60H         LINE#         40646
  C:9B61H         LINE#         40647
  C:9B62H         LINE#         40648
  C:9B64H         LINE#         40649
  C:9B65H         LINE#         40650
  C:9B66H         LINE#         40651
  C:9B67H         LINE#         40652
  C:9B68H         LINE#         40653
  C:9B6AH         LINE#         40654
  C:9B6BH         LINE#         40655
  C:9B6CH         LINE#         40656
  C:9B6DH         LINE#         40657
  C:9B6EH         LINE#         40658
  C:9B6FH         LINE#         40659
  C:9B71H         LINE#         40660
  C:9B72H         LINE#         40661
  C:9B74H         LINE#         40662
  C:9B75H         LINE#         40663
  C:9B76H         LINE#         40664
  C:9B77H         LINE#         40665
  C:9B78H         LINE#         40666
  C:9B7AH         LINE#         40667
  C:9B7BH         LINE#         40668
  C:9B7DH         LINE#         40669
  C:9B7EH         LINE#         40670
  C:9B81H         LINE#         40673
  C:9B83H         LINE#         40674
  C:9B84H         LINE#         40675
  C:9B85H         LINE#         40676
  C:9B86H         LINE#         40677
  C:9B87H         LINE#         40678
  C:9B89H         LINE#         40679
  C:9B8AH         LINE#         40680
  C:9B8BH         LINE#         40681
  C:9B8CH         LINE#         40682
  C:9B8DH         LINE#         40683
  C:9B8EH         LINE#         40684
  C:9B90H         LINE#         40685
  C:9B91H         LINE#         40686
  C:9B92H         LINE#         40687
  C:9B93H         LINE#         40688
BL51 BANKED LINKER/LOCATER V5.12                                                      02/19/2014  16:34:22  PAGE 74


  C:9B94H         LINE#         40689
  C:9B96H         LINE#         40690
  C:9B97H         LINE#         40691
  C:9B98H         LINE#         40692
  C:9B99H         LINE#         40693
  C:9B9AH         LINE#         40694
  C:9B9BH         LINE#         40695
  C:9B9DH         LINE#         40696
  C:9B9EH         LINE#         40697
  C:9BA0H         LINE#         40698
  C:9BA1H         LINE#         40699
  C:9BA2H         LINE#         40700
  C:9BA3H         LINE#         40701
  C:9BA4H         LINE#         40702
  C:9BA6H         LINE#         40703
  C:9BA7H         LINE#         40704
  C:9BA9H         LINE#         40705
  C:9BAAH         LINE#         40706
  C:9BADH         LINE#         40709
  C:9BAFH         LINE#         40710
  C:9BB0H         LINE#         40711
  C:9BB1H         LINE#         40712
  C:9BB2H         LINE#         40713
  C:9BB3H         LINE#         40714
  C:9BB5H         LINE#         40715
  C:9BB6H         LINE#         40716
  C:9BB7H         LINE#         40717
  C:9BB8H         LINE#         40718
  C:9BB9H         LINE#         40719
  C:9BBAH         LINE#         40720
  C:9BBCH         LINE#         40721
  C:9BBDH         LINE#         40722
  C:9BBEH         LINE#         40723
  C:9BBFH         LINE#         40724
  C:9BC0H         LINE#         40725
  C:9BC2H         LINE#         40726
  C:9BC3H         LINE#         40727
  C:9BC4H         LINE#         40728
  C:9BC5H         LINE#         40729
  C:9BC6H         LINE#         40730
  C:9BC7H         LINE#         40731
  C:9BC9H         LINE#         40732
  C:9BCAH         LINE#         40733
  C:9BCCH         LINE#         40734
  C:9BCDH         LINE#         40735
  C:9BCEH         LINE#         40736
  C:9BCFH         LINE#         40737
  C:9BD0H         LINE#         40738
  C:9BD2H         LINE#         40739
  C:9BD3H         LINE#         40740
  C:9BD5H         LINE#         40741
  C:9BD6H         LINE#         40742
  C:9BD9H         LINE#         40745
  C:9BDBH         LINE#         40746
  C:9BDCH         LINE#         40747
  C:9BDDH         LINE#         40748
  C:9BDEH         LINE#         40749
BL51 BANKED LINKER/LOCATER V5.12                                                      02/19/2014  16:34:22  PAGE 75


  C:9BDFH         LINE#         40750
  C:9BE1H         LINE#         40751
  C:9BE2H         LINE#         40752
  C:9BE3H         LINE#         40753
  C:9BE4H         LINE#         40754
  C:9BE5H         LINE#         40755
  C:9BE6H         LINE#         40756
  C:9BE8H         LINE#         40757
  C:9BE9H         LINE#         40758
  C:9BEAH         LINE#         40759
  C:9BEBH         LINE#         40760
  C:9BECH         LINE#         40761
  C:9BEEH         LINE#         40762
  C:9BEFH         LINE#         40763
  C:9BF0H         LINE#         40764
  C:9BF1H         LINE#         40765
  C:9BF2H         LINE#         40766
  C:9BF3H         LINE#         40767
  C:9BF5H         LINE#         40768
  C:9BF6H         LINE#         40769
  C:9BF8H         LINE#         40770
  C:9BF9H         LINE#         40771
  C:9BFAH         LINE#         40772
  C:9BFBH         LINE#         40773
  C:9BFCH         LINE#         40774
  C:9BFEH         LINE#         40775
  C:9BFFH         LINE#         40776
  C:9C01H         LINE#         40777
  C:9C02H         LINE#         40778
  C:9C05H         LINE#         40781
  C:9C07H         LINE#         40782
  C:9C08H         LINE#         40783
  C:9C09H         LINE#         40784
  C:9C0AH         LINE#         40785
  C:9C0BH         LINE#         40786
  C:9C0DH         LINE#         40787
  C:9C0EH         LINE#         40788
  C:9C0FH         LINE#         40789
  C:9C10H         LINE#         40790
  C:9C11H         LINE#         40791
  C:9C12H         LINE#         40792
  C:9C14H         LINE#         40793
  C:9C15H         LINE#         40794
  C:9C16H         LINE#         40795
  C:9C17H         LINE#         40796
  C:9C18H         LINE#         40797
  C:9C1AH         LINE#         40798
  C:9C1BH         LINE#         40799
  C:9C1CH         LINE#         40800
  C:9C1DH         LINE#         40801
  C:9C1EH         LINE#         40802
  C:9C1FH         LINE#         40803
  C:9C21H         LINE#         40804
  C:9C22H         LINE#         40805
  C:9C24H         LINE#         40806
  C:9C25H         LINE#         40807
  C:9C26H         LINE#         40808
BL51 BANKED LINKER/LOCATER V5.12                                                      02/19/2014  16:34:22  PAGE 76


  C:9C27H         LINE#         40809
  C:9C28H         LINE#         40810
  C:9C2AH         LINE#         40811
  C:9C2BH         LINE#         40812
  C:9C2DH         LINE#         40813
  C:9C2EH         LINE#         40814
  C:9C31H         LINE#         40817
  C:9C33H         LINE#         40818
  C:9C34H         LINE#         40819
  C:9C35H         LINE#         40820
  C:9C36H         LINE#         40821
  C:9C37H         LINE#         40822
  C:9C39H         LINE#         40823
  C:9C3AH         LINE#         40824
  C:9C3BH         LINE#         40825
  C:9C3CH         LINE#         40826
  C:9C3DH         LINE#         40827
  C:9C3EH         LINE#         40828
  C:9C40H         LINE#         40829
  C:9C41H         LINE#         40830
  C:9C42H         LINE#         40831
  C:9C43H         LINE#         40832
  C:9C44H         LINE#         40833
  C:9C46H         LINE#         40834
  C:9C47H         LINE#         40835
  C:9C48H         LINE#         40836
  C:9C49H         LINE#         40837
  C:9C4AH         LINE#         40838
  C:9C4BH         LINE#         40839
  C:9C4DH         LINE#         40840
  C:9C4EH         LINE#         40841
  C:9C50H         LINE#         40842
  C:9C51H         LINE#         40843
  C:9C52H         LINE#         40844
  C:9C53H         LINE#         40845
  C:9C54H         LINE#         40846
  C:9C56H         LINE#         40847
  C:9C58H         LINE#         40848
  C:9C5AH         LINE#         40849
  C:9C5BH         LINE#         40850
  C:9C5EH         LINE#         40853
  C:9C60H         LINE#         40854
  C:9C61H         LINE#         40855
  C:9C62H         LINE#         40856
  C:9C63H         LINE#         40857
  C:9C64H         LINE#         40858
  C:9C66H         LINE#         40859
  C:9C67H         LINE#         40860
  C:9C68H         LINE#         40861
  C:9C69H         LINE#         40862
  C:9C6AH         LINE#         40863
  C:9C6BH         LINE#         40864
  C:9C6DH         LINE#         40865
  C:9C6EH         LINE#         40866
  C:9C6FH         LINE#         40867
  C:9C70H         LINE#         40868
  C:9C71H         LINE#         40869
BL51 BANKED LINKER/LOCATER V5.12                                                      02/19/2014  16:34:22  PAGE 77


  C:9C73H         LINE#         40870
  C:9C74H         LINE#         40871
  C:9C75H         LINE#         40872
  C:9C76H         LINE#         40873
  C:9C77H         LINE#         40874
  C:9C78H         LINE#         40875
  C:9C7AH         LINE#         40876
  C:9C7BH         LINE#         40877
  C:9C7DH         LINE#         40878
  C:9C7EH         LINE#         40879
  C:9C7FH         LINE#         40880
  C:9C80H         LINE#         40881
  C:9C81H         LINE#         40882
  C:9C83H         LINE#         40883
  C:9C85H         LINE#         40884
  C:9C87H         LINE#         40885
  C:9C88H         LINE#         40886
  C:9C8BH         LINE#         40889
  C:9C8DH         LINE#         40890
  C:9C8EH         LINE#         40891
  C:9C8FH         LINE#         40892
  C:9C90H         LINE#         40893
  C:9C91H         LINE#         40894
  C:9C93H         LINE#         40895
  C:9C94H         LINE#         40896
  C:9C95H         LINE#         40897
  C:9C96H         LINE#         40898
  C:9C97H         LINE#         40899
  C:9C98H         LINE#         40900
  C:9C9AH         LINE#         40901
  C:9C9BH         LINE#         40902
  C:9C9CH         LINE#         40903
  C:9C9DH         LINE#         40904
  C:9C9EH         LINE#         40905
  C:9CA0H         LINE#         40906
  C:9CA1H         LINE#         40907
  C:9CA2H         LINE#         40908
  C:9CA3H         LINE#         40909
  C:9CA4H         LINE#         40910
  C:9CA5H         LINE#         40911
  C:9CA7H         LINE#         40912
  C:9CA8H         LINE#         40913
  C:9CAAH         LINE#         40914
  C:9CABH         LINE#         40915
  C:9CACH         LINE#         40916
  C:9CADH         LINE#         40917
  C:9CAEH         LINE#         40918
  C:9CB0H         LINE#         40919
  C:9CB2H         LINE#         40920
  C:9CB4H         LINE#         40921
  C:9CB5H         LINE#         40922
  C:A704H         LINE#         40939
  C:A707H         LINE#         40942
  C:A70AH         LINE#         40945
  C:A70CH         LINE#         40946
  C:A70DH         LINE#         40947
  C:A70EH         LINE#         40948
BL51 BANKED LINKER/LOCATER V5.12                                                      02/19/2014  16:34:22  PAGE 78


  C:A70FH         LINE#         40949
  C:A710H         LINE#         40950
  C:A712H         LINE#         40951
  C:A713H         LINE#         40952
  C:A714H         LINE#         40953
  C:A715H         LINE#         40954
  C:A716H         LINE#         40955
  C:A717H         LINE#         40956
  C:A719H         LINE#         40957
  C:A71AH         LINE#         40958
  C:A71BH         LINE#         40959
  C:A71CH         LINE#         40960
  C:A71DH         LINE#         40961
  C:A71FH         LINE#         40962
  C:A720H         LINE#         40963
  C:A721H         LINE#         40964
  C:A722H         LINE#         40965
  C:A723H         LINE#         40966
  C:A724H         LINE#         40967
  C:A725H         LINE#         40968
  C:A727H         LINE#         40969
  C:A728H         LINE#         40970
  C:A729H         LINE#         40971
  C:A72BH         LINE#         40972
  C:A72CH         LINE#         40973
  C:A72DH         LINE#         40974
  C:A72FH         LINE#         40975
  C:A730H         LINE#         40976
  C:A731H         LINE#         40977
  C:A732H         LINE#         40978
  C:A733H         LINE#         40979
  C:A735H         LINE#         40980
  C:A736H         LINE#         40981
  C:A738H         LINE#         40982
  C:A739H         LINE#         40983
  C:A73CH         LINE#         40986
  C:A73EH         LINE#         40987
  C:A73FH         LINE#         40988
  C:A740H         LINE#         40989
  C:A741H         LINE#         40990
  C:A742H         LINE#         40991
  C:A744H         LINE#         40992
  C:A745H         LINE#         40993
  C:A746H         LINE#         40994
  C:A747H         LINE#         40995
  C:A748H         LINE#         40996
  C:A749H         LINE#         40997
  C:A74BH         LINE#         40998
  C:A74CH         LINE#         40999
  C:A74DH         LINE#         41000
  C:A74EH         LINE#         41001
  C:A74FH         LINE#         41002
  C:A751H         LINE#         41003
  C:A752H         LINE#         41004
  C:A753H         LINE#         41005
  C:A754H         LINE#         41006
  C:A755H         LINE#         41007
BL51 BANKED LINKER/LOCATER V5.12                                                      02/19/2014  16:34:22  PAGE 79


  C:A756H         LINE#         41008
  C:A757H         LINE#         41009
  C:A759H         LINE#         41010
  C:A75AH         LINE#         41011
  C:A75BH         LINE#         41012
  C:A75DH         LINE#         41013
  C:A75EH         LINE#         41014
  C:A75FH         LINE#         41015
  C:A761H         LINE#         41016
  C:A762H         LINE#         41017
  C:A763H         LINE#         41018
  C:A764H         LINE#         41019
  C:A765H         LINE#         41020
  C:A767H         LINE#         41021
  C:A768H         LINE#         41022
  C:A76AH         LINE#         41023
  C:A76BH         LINE#         41024
  C:A76EH         LINE#         41027
  C:A770H         LINE#         41028
  C:A771H         LINE#         41029
  C:A772H         LINE#         41030
  C:A773H         LINE#         41031
  C:A774H         LINE#         41032
  C:A776H         LINE#         41033
  C:A777H         LINE#         41034
  C:A778H         LINE#         41035
  C:A779H         LINE#         41036
  C:A77AH         LINE#         41037
  C:A77BH         LINE#         41038
  C:A77DH         LINE#         41039
  C:A77EH         LINE#         41040
  C:A77FH         LINE#         41041
  C:A780H         LINE#         41042
  C:A781H         LINE#         41043
  C:A783H         LINE#         41044
  C:A784H         LINE#         41045
  C:A785H         LINE#         41046
  C:A786H         LINE#         41047
  C:A787H         LINE#         41048
  C:A788H         LINE#         41049
  C:A789H         LINE#         41050
  C:A78BH         LINE#         41051
  C:A78CH         LINE#         41052
  C:A78DH         LINE#         41053
  C:A78FH         LINE#         41054
  C:A790H         LINE#         41055
  C:A791H         LINE#         41056
  C:A793H         LINE#         41057
  C:A794H         LINE#         41058
  C:A795H         LINE#         41059
  C:A796H         LINE#         41060
  C:A797H         LINE#         41061
  C:A799H         LINE#         41062
  C:A79AH         LINE#         41063
  C:A79CH         LINE#         41064
  C:A79DH         LINE#         41065
  C:A7A0H         LINE#         41068
BL51 BANKED LINKER/LOCATER V5.12                                                      02/19/2014  16:34:22  PAGE 80


  C:A7A2H         LINE#         41069
  C:A7A3H         LINE#         41070
  C:A7A4H         LINE#         41071
  C:A7A5H         LINE#         41072
  C:A7A6H         LINE#         41073
  C:A7A8H         LINE#         41074
  C:A7A9H         LINE#         41075
  C:A7AAH         LINE#         41076
  C:A7ABH         LINE#         41077
  C:A7ACH         LINE#         41078
  C:A7ADH         LINE#         41079
  C:A7AFH         LINE#         41080
  C:A7B0H         LINE#         41081
  C:A7B1H         LINE#         41082
  C:A7B2H         LINE#         41083
  C:A7B3H         LINE#         41084
  C:A7B5H         LINE#         41085
  C:A7B6H         LINE#         41086
  C:A7B7H         LINE#         41087
  C:A7B8H         LINE#         41088
  C:A7B9H         LINE#         41089
  C:A7BAH         LINE#         41090
  C:A7BBH         LINE#         41091
  C:A7BDH         LINE#         41092
  C:A7BEH         LINE#         41093
  C:A7BFH         LINE#         41094
  C:A7C1H         LINE#         41095
  C:A7C2H         LINE#         41096
  C:A7C3H         LINE#         41097
  C:A7C5H         LINE#         41098
  C:A7C6H         LINE#         41099
  C:A7C7H         LINE#         41100
  C:A7C8H         LINE#         41101
  C:A7C9H         LINE#         41102
  C:A7CBH         LINE#         41103
  C:A7CCH         LINE#         41104
  C:A7CEH         LINE#         41105
  C:A7CFH         LINE#         41106
  C:A7D2H         LINE#         41109
  C:A7D4H         LINE#         41110
  C:A7D5H         LINE#         41111
  C:A7D6H         LINE#         41112
  C:A7D7H         LINE#         41113
  C:A7D8H         LINE#         41114
  C:A7DAH         LINE#         41115
  C:A7DBH         LINE#         41116
  C:A7DCH         LINE#         41117
  C:A7DDH         LINE#         41118
  C:A7DEH         LINE#         41119
  C:A7DFH         LINE#         41120
  C:A7E1H         LINE#         41121
  C:A7E2H         LINE#         41122
  C:A7E3H         LINE#         41123
  C:A7E4H         LINE#         41124
  C:A7E5H         LINE#         41125
  C:A7E7H         LINE#         41126
  C:A7E8H         LINE#         41127
BL51 BANKED LINKER/LOCATER V5.12                                                      02/19/2014  16:34:22  PAGE 81


  C:A7E9H         LINE#         41128
  C:A7EAH         LINE#         41129
  C:A7EBH         LINE#         41130
  C:A7ECH         LINE#         41131
  C:A7EDH         LINE#         41132
  C:A7EFH         LINE#         41133
  C:A7F0H         LINE#         41134
  C:A7F1H         LINE#         41135
  C:A7F3H         LINE#         41136
  C:A7F4H         LINE#         41137
  C:A7F6H         LINE#         41138
  C:A7F9H         LINE#         41141
  C:A7FBH         LINE#         41142
  C:A7FCH         LINE#         41143
  C:A7FDH         LINE#         41144
  C:A7FEH         LINE#         41145
  C:A7FFH         LINE#         41146
  C:A801H         LINE#         41147
  C:A802H         LINE#         41148
  C:A803H         LINE#         41149
  C:A804H         LINE#         41150
  C:A805H         LINE#         41151
  C:A806H         LINE#         41152
  C:A808H         LINE#         41153
  C:A809H         LINE#         41154
  C:A80AH         LINE#         41155
  C:A80BH         LINE#         41156
  C:A80CH         LINE#         41157
  C:A80EH         LINE#         41158
  C:A80FH         LINE#         41159
  C:A810H         LINE#         41160
  C:A811H         LINE#         41161
  C:A812H         LINE#         41162
  C:A813H         LINE#         41163
  C:A814H         LINE#         41164
  C:A816H         LINE#         41165
  C:A817H         LINE#         41166
  C:A818H         LINE#         41167
  C:A81AH         LINE#         41168
  C:A81BH         LINE#         41169
  C:A81CH         LINE#         41170
  C:A81EH         LINE#         41171
  C:A81FH         LINE#         41172
  C:A820H         LINE#         41173
  C:A821H         LINE#         41174
  C:A822H         LINE#         41175
  C:A824H         LINE#         41176
  C:A825H         LINE#         41177
  C:A827H         LINE#         41178
  C:A828H         LINE#         41179
  C:A82BH         LINE#         41182
  C:A82DH         LINE#         41183
  C:A82EH         LINE#         41184
  C:A82FH         LINE#         41185
  C:A830H         LINE#         41186
  C:A831H         LINE#         41187
  C:A833H         LINE#         41188
BL51 BANKED LINKER/LOCATER V5.12                                                      02/19/2014  16:34:22  PAGE 82


  C:A834H         LINE#         41189
  C:A835H         LINE#         41190
  C:A836H         LINE#         41191
  C:A837H         LINE#         41192
  C:A838H         LINE#         41193
  C:A83AH         LINE#         41194
  C:A83BH         LINE#         41195
  C:A83CH         LINE#         41196
  C:A83DH         LINE#         41197
  C:A83EH         LINE#         41198
  C:A840H         LINE#         41199
  C:A841H         LINE#         41200
  C:A842H         LINE#         41201
  C:A843H         LINE#         41202
  C:A844H         LINE#         41203
  C:A845H         LINE#         41204
  C:A846H         LINE#         41205
  C:A848H         LINE#         41206
  C:A849H         LINE#         41207
  C:A84AH         LINE#         41208
  C:A84CH         LINE#         41209
  C:A84DH         LINE#         41210
  C:A84EH         LINE#         41211
  C:A850H         LINE#         41212
  C:A851H         LINE#         41213
  C:A852H         LINE#         41214
  C:A853H         LINE#         41215
  C:A854H         LINE#         41216
  C:A856H         LINE#         41217
  C:A857H         LINE#         41218
  C:A859H         LINE#         41219
  C:A85AH         LINE#         41220
  C:A85DH         LINE#         41223
  C:A85FH         LINE#         41224
  C:A860H         LINE#         41225
  C:A861H         LINE#         41226
  C:A862H         LINE#         41227
  C:A863H         LINE#         41228
  C:A865H         LINE#         41229
  C:A866H         LINE#         41230
  C:A867H         LINE#         41231
  C:A868H         LINE#         41232
  C:A869H         LINE#         41233
  C:A86AH         LINE#         41234
  C:A86CH         LINE#         41235
  C:A86DH         LINE#         41236
  C:A86EH         LINE#         41237
  C:A86FH         LINE#         41238
  C:A870H         LINE#         41239
  C:A872H         LINE#         41240
  C:A873H         LINE#         41241
  C:A874H         LINE#         41242
  C:A875H         LINE#         41243
  C:A876H         LINE#         41244
  C:A877H         LINE#         41245
  C:A878H         LINE#         41246
  C:A87AH         LINE#         41247
BL51 BANKED LINKER/LOCATER V5.12                                                      02/19/2014  16:34:22  PAGE 83


  C:A87BH         LINE#         41248
  C:A87CH         LINE#         41249
  C:A87EH         LINE#         41250
  C:A87FH         LINE#         41251
  C:A880H         LINE#         41252
  C:A882H         LINE#         41253
  C:A883H         LINE#         41254
  C:A884H         LINE#         41255
  C:A885H         LINE#         41256
  C:A886H         LINE#         41257
  C:A888H         LINE#         41258
  C:A889H         LINE#         41259
  C:A88BH         LINE#         41260
  C:A88CH         LINE#         41261
  C:A88FH         LINE#         41277
  C:A892H         LINE#         41280
  C:A895H         LINE#         41283
  C:A897H         LINE#         41284
  C:A898H         LINE#         41285
  C:A899H         LINE#         41286
  C:A89AH         LINE#         41287
  C:A89BH         LINE#         41288
  C:A89DH         LINE#         41289
  C:A89EH         LINE#         41290
  C:A89FH         LINE#         41291
  C:A8A0H         LINE#         41292
  C:A8A1H         LINE#         41293
  C:A8A2H         LINE#         41294
  C:A8A4H         LINE#         41295
  C:A8A5H         LINE#         41296
  C:A8A6H         LINE#         41297
  C:A8A7H         LINE#         41298
  C:A8A8H         LINE#         41299
  C:A8AAH         LINE#         41300
  C:A8ABH         LINE#         41301
  C:A8ACH         LINE#         41302
  C:A8ADH         LINE#         41303
  C:A8AEH         LINE#         41304
  C:A8AFH         LINE#         41305
  C:A8B0H         LINE#         41306
  C:A8B2H         LINE#         41307
  C:A8B3H         LINE#         41308
  C:A8B4H         LINE#         41309
  C:A8B6H         LINE#         41310
  C:A8B7H         LINE#         41311
  C:A8B8H         LINE#         41312
  C:A8BAH         LINE#         41313
  C:A8BBH         LINE#         41314
  C:A8BCH         LINE#         41315
  C:A8BDH         LINE#         41316
  C:A8BEH         LINE#         41317
  C:A8C0H         LINE#         41318
  C:A8C1H         LINE#         41319
  C:A8C3H         LINE#         41320
  C:A8C4H         LINE#         41321
  C:A8C7H         LINE#         41324
  C:A8C9H         LINE#         41325
BL51 BANKED LINKER/LOCATER V5.12                                                      02/19/2014  16:34:22  PAGE 84


  C:A8CAH         LINE#         41326
  C:A8CBH         LINE#         41327
  C:A8CCH         LINE#         41328
  C:A8CDH         LINE#         41329
  C:A8CFH         LINE#         41330
  C:A8D0H         LINE#         41331
  C:A8D1H         LINE#         41332
  C:A8D2H         LINE#         41333
  C:A8D3H         LINE#         41334
  C:A8D4H         LINE#         41335
  C:A8D6H         LINE#         41336
  C:A8D7H         LINE#         41337
  C:A8D8H         LINE#         41338
  C:A8D9H         LINE#         41339
  C:A8DAH         LINE#         41340
  C:A8DCH         LINE#         41341
  C:A8DDH         LINE#         41342
  C:A8DEH         LINE#         41343
  C:A8DFH         LINE#         41344
  C:A8E0H         LINE#         41345
  C:A8E1H         LINE#         41346
  C:A8E2H         LINE#         41347
  C:A8E4H         LINE#         41348
  C:A8E5H         LINE#         41349
  C:A8E6H         LINE#         41350
  C:A8E8H         LINE#         41351
  C:A8E9H         LINE#         41352
  C:A8EAH         LINE#         41353
  C:A8ECH         LINE#         41354
  C:A8EDH         LINE#         41355
  C:A8EEH         LINE#         41356
  C:A8EFH         LINE#         41357
  C:A8F0H         LINE#         41358
  C:A8F2H         LINE#         41359
  C:A8F3H         LINE#         41360
  C:A8F5H         LINE#         41361
  C:A8F6H         LINE#         41362
  C:A8F9H         LINE#         41365
  C:A8FBH         LINE#         41366
  C:A8FCH         LINE#         41367
  C:A8FDH         LINE#         41368
  C:A8FEH         LINE#         41369
  C:A8FFH         LINE#         41370
  C:A901H         LINE#         41371
  C:A902H         LINE#         41372
  C:A903H         LINE#         41373
  C:A904H         LINE#         41374
  C:A905H         LINE#         41375
  C:A906H         LINE#         41376
  C:A908H         LINE#         41377
  C:A909H         LINE#         41378
  C:A90AH         LINE#         41379
  C:A90BH         LINE#         41380
  C:A90CH         LINE#         41381
  C:A90EH         LINE#         41382
  C:A90FH         LINE#         41383
  C:A910H         LINE#         41384
BL51 BANKED LINKER/LOCATER V5.12                                                      02/19/2014  16:34:22  PAGE 85


  C:A911H         LINE#         41385
  C:A912H         LINE#         41386
  C:A913H         LINE#         41387
  C:A914H         LINE#         41388
  C:A916H         LINE#         41389
  C:A917H         LINE#         41390
  C:A918H         LINE#         41391
  C:A91AH         LINE#         41392
  C:A91BH         LINE#         41393
  C:A91CH         LINE#         41394
  C:A91EH         LINE#         41395
  C:A91FH         LINE#         41396
  C:A920H         LINE#         41397
  C:A921H         LINE#         41398
  C:A922H         LINE#         41399
  C:A924H         LINE#         41400
  C:A925H         LINE#         41401
  C:A927H         LINE#         41402
  C:A928H         LINE#         41403
  C:A92BH         LINE#         41406
  C:A92DH         LINE#         41407
  C:A92EH         LINE#         41408
  C:A92FH         LINE#         41409
  C:A930H         LINE#         41410
  C:A931H         LINE#         41411
  C:A933H         LINE#         41412
  C:A934H         LINE#         41413
  C:A935H         LINE#         41414
  C:A936H         LINE#         41415
  C:A937H         LINE#         41416
  C:A938H         LINE#         41417
  C:A93AH         LINE#         41418
  C:A93BH         LINE#         41419
  C:A93CH         LINE#         41420
  C:A93DH         LINE#         41421
  C:A93EH         LINE#         41422
  C:A940H         LINE#         41423
  C:A941H         LINE#         41424
  C:A942H         LINE#         41425
  C:A943H         LINE#         41426
  C:A944H         LINE#         41427
  C:A945H         LINE#         41428
  C:A946H         LINE#         41429
  C:A948H         LINE#         41430
  C:A949H         LINE#         41431
  C:A94AH         LINE#         41432
  C:A94CH         LINE#         41433
  C:A94DH         LINE#         41434
  C:A94EH         LINE#         41435
  C:A950H         LINE#         41436
  C:A951H         LINE#         41437
  C:A952H         LINE#         41438
  C:A953H         LINE#         41439
  C:A954H         LINE#         41440
  C:A956H         LINE#         41441
  C:A957H         LINE#         41442
  C:A959H         LINE#         41443
BL51 BANKED LINKER/LOCATER V5.12                                                      02/19/2014  16:34:22  PAGE 86


  C:A95AH         LINE#         41444
  C:A95DH         LINE#         41447
  C:A95FH         LINE#         41448
  C:A960H         LINE#         41449
  C:A961H         LINE#         41450
  C:A962H         LINE#         41451
  C:A963H         LINE#         41452
  C:A965H         LINE#         41453
  C:A966H         LINE#         41454
  C:A967H         LINE#         41455
  C:A968H         LINE#         41456
  C:A969H         LINE#         41457
  C:A96AH         LINE#         41458
  C:A96CH         LINE#         41459
  C:A96DH         LINE#         41460
  C:A96EH         LINE#         41461
  C:A96FH         LINE#         41462
  C:A970H         LINE#         41463
  C:A972H         LINE#         41464
  C:A973H         LINE#         41465
  C:A974H         LINE#         41466
  C:A975H         LINE#         41467
  C:A976H         LINE#         41468
  C:A977H         LINE#         41469
  C:A978H         LINE#         41470
  C:A97AH         LINE#         41471
  C:A97BH         LINE#         41472
  C:A97CH         LINE#         41473
  C:A97EH         LINE#         41474
  C:A97FH         LINE#         41475
  C:A981H         LINE#         41476
  C:A984H         LINE#         41479
  C:A986H         LINE#         41480
  C:A987H         LINE#         41481
  C:A988H         LINE#         41482
  C:A989H         LINE#         41483
  C:A98AH         LINE#         41484
  C:A98CH         LINE#         41485
  C:A98DH         LINE#         41486
  C:A98EH         LINE#         41487
  C:A98FH         LINE#         41488
  C:A990H         LINE#         41489
  C:A991H         LINE#         41490
  C:A993H         LINE#         41491
  C:A994H         LINE#         41492
  C:A995H         LINE#         41493
  C:A996H         LINE#         41494
  C:A997H         LINE#         41495
  C:A999H         LINE#         41496
  C:A99AH         LINE#         41497
  C:A99BH         LINE#         41498
  C:A99CH         LINE#         41499
  C:A99DH         LINE#         41500
  C:A99EH         LINE#         41501
  C:A99FH         LINE#         41502
  C:A9A1H         LINE#         41503
  C:A9A2H         LINE#         41504
BL51 BANKED LINKER/LOCATER V5.12                                                      02/19/2014  16:34:22  PAGE 87


  C:A9A3H         LINE#         41505
  C:A9A5H         LINE#         41506
  C:A9A6H         LINE#         41507
  C:A9A7H         LINE#         41508
  C:A9A9H         LINE#         41509
  C:A9AAH         LINE#         41510
  C:A9ABH         LINE#         41511
  C:A9ACH         LINE#         41512
  C:A9ADH         LINE#         41513
  C:A9AFH         LINE#         41514
  C:A9B0H         LINE#         41515
  C:A9B2H         LINE#         41516
  C:A9B3H         LINE#         41517
  C:A9B6H         LINE#         41520
  C:A9B8H         LINE#         41521
  C:A9B9H         LINE#         41522
  C:A9BAH         LINE#         41523
  C:A9BBH         LINE#         41524
  C:A9BCH         LINE#         41525
  C:A9BEH         LINE#         41526
  C:A9BFH         LINE#         41527
  C:A9C0H         LINE#         41528
  C:A9C1H         LINE#         41529
  C:A9C2H         LINE#         41530
  C:A9C3H         LINE#         41531
  C:A9C5H         LINE#         41532
  C:A9C6H         LINE#         41533
  C:A9C7H         LINE#         41534
  C:A9C8H         LINE#         41535
  C:A9C9H         LINE#         41536
  C:A9CBH         LINE#         41537
  C:A9CCH         LINE#         41538
  C:A9CDH         LINE#         41539
  C:A9CEH         LINE#         41540
  C:A9CFH         LINE#         41541
  C:A9D0H         LINE#         41542
  C:A9D1H         LINE#         41543
  C:A9D3H         LINE#         41544
  C:A9D4H         LINE#         41545
  C:A9D5H         LINE#         41546
  C:A9D7H         LINE#         41547
  C:A9D8H         LINE#         41548
  C:A9D9H         LINE#         41549
  C:A9DBH         LINE#         41550
  C:A9DCH         LINE#         41551
  C:A9DDH         LINE#         41552
  C:A9DEH         LINE#         41553
  C:A9DFH         LINE#         41554
  C:A9E1H         LINE#         41555
  C:A9E2H         LINE#         41556
  C:A9E4H         LINE#         41557
  C:A9E5H         LINE#         41558
  C:A9E8H         LINE#         41561
  C:A9EAH         LINE#         41562
  C:A9EBH         LINE#         41563
  C:A9ECH         LINE#         41564
  C:A9EDH         LINE#         41565
BL51 BANKED LINKER/LOCATER V5.12                                                      02/19/2014  16:34:22  PAGE 88


  C:A9EEH         LINE#         41566
  C:A9F0H         LINE#         41567
  C:A9F1H         LINE#         41568
  C:A9F2H         LINE#         41569
  C:A9F3H         LINE#         41570
  C:A9F4H         LINE#         41571
  C:A9F5H         LINE#         41572
  C:A9F7H         LINE#         41573
  C:A9F8H         LINE#         41574
  C:A9F9H         LINE#         41575
  C:A9FAH         LINE#         41576
  C:A9FBH         LINE#         41577
  C:A9FDH         LINE#         41578
  C:A9FEH         LINE#         41579
  C:A9FFH         LINE#         41580
  C:AA00H         LINE#         41581
  C:AA01H         LINE#         41582
  C:AA02H         LINE#         41583
  C:AA03H         LINE#         41584
  C:AA05H         LINE#         41585
  C:AA06H         LINE#         41586
  C:AA07H         LINE#         41587
  C:AA09H         LINE#         41588
  C:AA0AH         LINE#         41589
  C:AA0BH         LINE#         41590
  C:AA0DH         LINE#         41591
  C:AA0EH         LINE#         41592
  C:AA0FH         LINE#         41593
  C:AA10H         LINE#         41594
  C:AA11H         LINE#         41595
  C:AA13H         LINE#         41596
  C:AA14H         LINE#         41597
  C:AA16H         LINE#         41598
  C:AA17H         LINE#         41599
  C:A578H         LINE#         41615
  C:A57BH         LINE#         41618
  C:A57EH         LINE#         41621
  C:A580H         LINE#         41622
  C:A581H         LINE#         41623
  C:A582H         LINE#         41624
  C:A583H         LINE#         41625
  C:A584H         LINE#         41626
  C:A586H         LINE#         41627
  C:A587H         LINE#         41628
  C:A588H         LINE#         41629
  C:A589H         LINE#         41630
  C:A58AH         LINE#         41631
  C:A58BH         LINE#         41632
  C:A58DH         LINE#         41633
  C:A58EH         LINE#         41634
  C:A58FH         LINE#         41635
  C:A590H         LINE#         41636
  C:A591H         LINE#         41637
  C:A593H         LINE#         41638
  C:A594H         LINE#         41639
  C:A595H         LINE#         41640
  C:A596H         LINE#         41641
BL51 BANKED LINKER/LOCATER V5.12                                                      02/19/2014  16:34:22  PAGE 89


  C:A597H         LINE#         41642
  C:A598H         LINE#         41643
  C:A599H         LINE#         41644
  C:A59BH         LINE#         41645
  C:A59CH         LINE#         41646
  C:A59DH         LINE#         41647
  C:A59FH         LINE#         41648
  C:A5A0H         LINE#         41649
  C:A5A1H         LINE#         41650
  C:A5A3H         LINE#         41651
  C:A5A4H         LINE#         41652
  C:A5A5H         LINE#         41653
  C:A5A6H         LINE#         41654
  C:A5A7H         LINE#         41655
  C:A5A9H         LINE#         41656
  C:A5AAH         LINE#         41657
  C:A5ACH         LINE#         41658
  C:A5ADH         LINE#         41659
  C:A5B0H         LINE#         41662
  C:A5B2H         LINE#         41663
  C:A5B3H         LINE#         41664
  C:A5B4H         LINE#         41665
  C:A5B5H         LINE#         41666
  C:A5B6H         LINE#         41667
  C:A5B8H         LINE#         41668
  C:A5B9H         LINE#         41669
  C:A5BAH         LINE#         41670
  C:A5BBH         LINE#         41671
  C:A5BCH         LINE#         41672
  C:A5BDH         LINE#         41673
  C:A5BFH         LINE#         41674
  C:A5C0H         LINE#         41675
  C:A5C1H         LINE#         41676
  C:A5C2H         LINE#         41677
  C:A5C3H         LINE#         41678
  C:A5C5H         LINE#         41679
  C:A5C6H         LINE#         41680
  C:A5C7H         LINE#         41681
  C:A5C8H         LINE#         41682
  C:A5C9H         LINE#         41683
  C:A5CAH         LINE#         41684
  C:A5CBH         LINE#         41685
  C:A5CDH         LINE#         41686
  C:A5CEH         LINE#         41687
  C:A5CFH         LINE#         41688
  C:A5D1H         LINE#         41689
  C:A5D2H         LINE#         41690
  C:A5D3H         LINE#         41691
  C:A5D5H         LINE#         41692
  C:A5D6H         LINE#         41693
  C:A5D7H         LINE#         41694
  C:A5D8H         LINE#         41695
  C:A5D9H         LINE#         41696
  C:A5DBH         LINE#         41697
  C:A5DCH         LINE#         41698
  C:A5DEH         LINE#         41699
  C:A5DFH         LINE#         41700
BL51 BANKED LINKER/LOCATER V5.12                                                      02/19/2014  16:34:22  PAGE 90


  C:A5E2H         LINE#         41703
  C:A5E4H         LINE#         41704
  C:A5E5H         LINE#         41705
  C:A5E6H         LINE#         41706
  C:A5E7H         LINE#         41707
  C:A5E8H         LINE#         41708
  C:A5EAH         LINE#         41709
  C:A5EBH         LINE#         41710
  C:A5ECH         LINE#         41711
  C:A5EDH         LINE#         41712
  C:A5EEH         LINE#         41713
  C:A5EFH         LINE#         41714
  C:A5F1H         LINE#         41715
  C:A5F2H         LINE#         41716
  C:A5F3H         LINE#         41717
  C:A5F4H         LINE#         41718
  C:A5F5H         LINE#         41719
  C:A5F7H         LINE#         41720
  C:A5F8H         LINE#         41721
  C:A5F9H         LINE#         41722
  C:A5FAH         LINE#         41723
  C:A5FBH         LINE#         41724
  C:A5FCH         LINE#         41725
  C:A5FDH         LINE#         41726
  C:A5FFH         LINE#         41727
  C:A600H         LINE#         41728
  C:A601H         LINE#         41729
  C:A603H         LINE#         41730
  C:A604H         LINE#         41731
  C:A605H         LINE#         41732
  C:A607H         LINE#         41733
  C:A608H         LINE#         41734
  C:A609H         LINE#         41735
  C:A60AH         LINE#         41736
  C:A60BH         LINE#         41737
  C:A60DH         LINE#         41738
  C:A60EH         LINE#         41739
  C:A610H         LINE#         41740
  C:A611H         LINE#         41741
  C:A614H         LINE#         41744
  C:A616H         LINE#         41745
  C:A617H         LINE#         41746
  C:A618H         LINE#         41747
  C:A619H         LINE#         41748
  C:A61AH         LINE#         41749
  C:A61CH         LINE#         41750
  C:A61DH         LINE#         41751
  C:A61EH         LINE#         41752
  C:A61FH         LINE#         41753
  C:A620H         LINE#         41754
  C:A621H         LINE#         41755
  C:A623H         LINE#         41756
  C:A624H         LINE#         41757
  C:A625H         LINE#         41758
  C:A626H         LINE#         41759
  C:A627H         LINE#         41760
  C:A629H         LINE#         41761
BL51 BANKED LINKER/LOCATER V5.12                                                      02/19/2014  16:34:22  PAGE 91


  C:A62AH         LINE#         41762
  C:A62BH         LINE#         41763
  C:A62CH         LINE#         41764
  C:A62DH         LINE#         41765
  C:A62EH         LINE#         41766
  C:A62FH         LINE#         41767
  C:A631H         LINE#         41768
  C:A632H         LINE#         41769
  C:A633H         LINE#         41770
  C:A635H         LINE#         41771
  C:A636H         LINE#         41772
  C:A637H         LINE#         41773
  C:A639H         LINE#         41774
  C:A63AH         LINE#         41775
  C:A63BH         LINE#         41776
  C:A63CH         LINE#         41777
  C:A63DH         LINE#         41778
  C:A63FH         LINE#         41779
  C:A640H         LINE#         41780
  C:A642H         LINE#         41781
  C:A643H         LINE#         41782
  C:A646H         LINE#         41785
  C:A648H         LINE#         41786
  C:A649H         LINE#         41787
  C:A64AH         LINE#         41788
  C:A64BH         LINE#         41789
  C:A64CH         LINE#         41790
  C:A64EH         LINE#         41791
  C:A64FH         LINE#         41792
  C:A650H         LINE#         41793
  C:A651H         LINE#         41794
  C:A652H         LINE#         41795
  C:A653H         LINE#         41796
  C:A655H         LINE#         41797
  C:A656H         LINE#         41798
  C:A657H         LINE#         41799
  C:A658H         LINE#         41800
  C:A659H         LINE#         41801
  C:A65BH         LINE#         41802
  C:A65CH         LINE#         41803
  C:A65DH         LINE#         41804
  C:A65EH         LINE#         41805
  C:A65FH         LINE#         41806
  C:A660H         LINE#         41807
  C:A661H         LINE#         41808
  C:A663H         LINE#         41809
  C:A664H         LINE#         41810
  C:A665H         LINE#         41811
  C:A667H         LINE#         41812
  C:A668H         LINE#         41813
  C:A669H         LINE#         41814
  C:A66BH         LINE#         41815
  C:A66EH         LINE#         41818
  C:A670H         LINE#         41819
  C:A671H         LINE#         41820
  C:A672H         LINE#         41821
  C:A673H         LINE#         41822
BL51 BANKED LINKER/LOCATER V5.12                                                      02/19/2014  16:34:22  PAGE 92


  C:A674H         LINE#         41823
  C:A676H         LINE#         41824
  C:A677H         LINE#         41825
  C:A678H         LINE#         41826
  C:A679H         LINE#         41827
  C:A67AH         LINE#         41828
  C:A67BH         LINE#         41829
  C:A67DH         LINE#         41830
  C:A67EH         LINE#         41831
  C:A67FH         LINE#         41832
  C:A680H         LINE#         41833
  C:A681H         LINE#         41834
  C:A683H         LINE#         41835
  C:A684H         LINE#         41836
  C:A685H         LINE#         41837
  C:A686H         LINE#         41838
  C:A687H         LINE#         41839
  C:A688H         LINE#         41840
  C:A689H         LINE#         41841
  C:A68BH         LINE#         41842
  C:A68CH         LINE#         41843
  C:A68DH         LINE#         41844
  C:A68FH         LINE#         41845
  C:A690H         LINE#         41846
  C:A691H         LINE#         41847
  C:A693H         LINE#         41848
  C:A694H         LINE#         41849
  C:A695H         LINE#         41850
  C:A696H         LINE#         41851
  C:A697H         LINE#         41852
  C:A699H         LINE#         41853
  C:A69AH         LINE#         41854
  C:A69CH         LINE#         41855
  C:A69DH         LINE#         41856
  C:A6A0H         LINE#         41859
  C:A6A2H         LINE#         41860
  C:A6A3H         LINE#         41861
  C:A6A4H         LINE#         41862
  C:A6A5H         LINE#         41863
  C:A6A6H         LINE#         41864
  C:A6A8H         LINE#         41865
  C:A6A9H         LINE#         41866
  C:A6AAH         LINE#         41867
  C:A6ABH         LINE#         41868
  C:A6ACH         LINE#         41869
  C:A6ADH         LINE#         41870
  C:A6AFH         LINE#         41871
  C:A6B0H         LINE#         41872
  C:A6B1H         LINE#         41873
  C:A6B2H         LINE#         41874
  C:A6B3H         LINE#         41875
  C:A6B5H         LINE#         41876
  C:A6B6H         LINE#         41877
  C:A6B7H         LINE#         41878
  C:A6B8H         LINE#         41879
  C:A6B9H         LINE#         41880
  C:A6BAH         LINE#         41881
BL51 BANKED LINKER/LOCATER V5.12                                                      02/19/2014  16:34:22  PAGE 93


  C:A6BBH         LINE#         41882
  C:A6BDH         LINE#         41883
  C:A6BEH         LINE#         41884
  C:A6BFH         LINE#         41885
  C:A6C1H         LINE#         41886
  C:A6C2H         LINE#         41887
  C:A6C3H         LINE#         41888
  C:A6C5H         LINE#         41889
  C:A6C6H         LINE#         41890
  C:A6C7H         LINE#         41891
  C:A6C8H         LINE#         41892
  C:A6C9H         LINE#         41893
  C:A6CBH         LINE#         41894
  C:A6CCH         LINE#         41895
  C:A6CEH         LINE#         41896
  C:A6CFH         LINE#         41897
  C:A6D2H         LINE#         41900
  C:A6D4H         LINE#         41901
  C:A6D5H         LINE#         41902
  C:A6D6H         LINE#         41903
  C:A6D7H         LINE#         41904
  C:A6D8H         LINE#         41905
  C:A6DAH         LINE#         41906
  C:A6DBH         LINE#         41907
  C:A6DCH         LINE#         41908
  C:A6DDH         LINE#         41909
  C:A6DEH         LINE#         41910
  C:A6DFH         LINE#         41911
  C:A6E1H         LINE#         41912
  C:A6E2H         LINE#         41913
  C:A6E3H         LINE#         41914
  C:A6E4H         LINE#         41915
  C:A6E5H         LINE#         41916
  C:A6E7H         LINE#         41917
  C:A6E8H         LINE#         41918
  C:A6E9H         LINE#         41919
  C:A6EAH         LINE#         41920
  C:A6EBH         LINE#         41921
  C:A6ECH         LINE#         41922
  C:A6EDH         LINE#         41923
  C:A6EFH         LINE#         41924
  C:A6F0H         LINE#         41925
  C:A6F1H         LINE#         41926
  C:A6F3H         LINE#         41927
  C:A6F4H         LINE#         41928
  C:A6F5H         LINE#         41929
  C:A6F7H         LINE#         41930
  C:A6F8H         LINE#         41931
  C:A6F9H         LINE#         41932
  C:A6FAH         LINE#         41933
  C:A6FBH         LINE#         41934
  C:A6FDH         LINE#         41935
  C:A6FEH         LINE#         41936
  C:A700H         LINE#         41937
  C:A701H         LINE#         41938
  C:B142H         LINE#         41955
  C:B144H         LINE#         41958
BL51 BANKED LINKER/LOCATER V5.12                                                      02/19/2014  16:34:22  PAGE 94


  C:B146H         LINE#         41959
  C:B147H         LINE#         41960
  C:B148H         LINE#         41961
  C:B149H         LINE#         41962
  C:B14BH         LINE#         41963
  C:B14CH         LINE#         41964
  C:B14EH         LINE#         41965
  C:B150H         LINE#         41966
  C:B152H         LINE#         41967
  C:B154H         LINE#         41968
  C:B156H         LINE#         41969
  C:B158H         LINE#         41970
  C:B15BH         LINE#         41973
  C:B15DH         LINE#         41977
  C:B160H         LINE#         41983
  C:B161H         LINE#         41984
  C:B162H         LINE#         41992
  C:B164H         LINE#         41998
  C:B166H         LINE#         42001
  C:B167H         LINE#         42003
  C:B168H         LINE#         42005
  C:B16AH         LINE#         42007
  C:B16BH         LINE#         42009
  C:B16CH         LINE#         42011
  C:B16DH         LINE#         42013
  C:B16FH         LINE#         42015
  C:B170H         LINE#         42019
  C:B172H         LINE#         42022
  C:B174H         LINE#         42026
  C:B175H         LINE#         42027
  C:B176H         LINE#         42028
  C:B179H         LINE#         42032
  C:B17BH         LINE#         42035
  C:B284H         LINE#         42052
  C:B286H         LINE#         42055
  C:B288H         LINE#         42056
  C:B28AH         LINE#         42059
  C:B28CH         LINE#         42062
  C:B28EH         LINE#         42065
  C:B28FH         LINE#         42076
  C:B291H         LINE#         42077
  C:B292H         LINE#         42078
  C:B293H         LINE#         42088
  C:B295H         LINE#         42091
  C:B26BH         LINE#         42102
  C:B26DH         LINE#         42104
  C:B26EH         LINE#         42105
  C:B26FH         LINE#         42106
  C:B270H         LINE#         42107
  C:B271H         LINE#         42108
  C:B272H         LINE#         42109
  C:B273H         LINE#         42110
  C:B274H         LINE#         42120
  C:B276H         LINE#         42123
  C:A1A3H         LINE#         42139
  C:A1A5H         LINE#         42142
  C:A1A7H         LINE#         42143
BL51 BANKED LINKER/LOCATER V5.12                                                      02/19/2014  16:34:22  PAGE 95


  C:A1A9H         LINE#         42144
  C:A1ACH         LINE#         42147
  C:A1AEH         LINE#         42150
  C:A1B0H         LINE#         42153
  C:A1B2H         LINE#         42154
  C:A1B3H         LINE#         42155
  C:A1B4H         LINE#         42156
  C:A1B7H         LINE#         42157
  C:A1B8H         LINE#         42158
  C:A1B9H         LINE#         42159
  C:A1BCH         LINE#         42162
  C:A1BEH         LINE#         42163
  C:A1BFH         LINE#         42164
  C:A1C2H         LINE#         42167
  C:A1C5H         LINE#         42168
  C:A1C7H         LINE#         42169
  C:A1C8H         LINE#         42170
  C:A1CBH         LINE#         42173
  C:A1CDH         LINE#         42174
  C:A1CEH         LINE#         42175
  C:A1D1H         LINE#         42176
  C:A1D3H         LINE#         42177
  C:A1D6H         LINE#         42180
  C:A1D7H         LINE#         42181
  C:A1D8H         LINE#         42182
  C:A1DBH         LINE#         42183
  C:A1DDH         LINE#         42184
  C:A1DEH         LINE#         42185
  C:A1E1H         LINE#         42188
  C:A1E3H         LINE#         42189
  C:A1E4H         LINE#         42190
  C:A1E7H         LINE#         42191
  C:A1E9H         LINE#         42192
  C:A1EBH         LINE#         42193
  C:A1EEH         LINE#         42196
  C:A1F0H         LINE#         42197
  C:A1F1H         LINE#         42198
  C:A1F4H         LINE#         42199
  C:A1F5H         LINE#         42200
  C:A1F7H         LINE#         42201
  C:A1FAH         LINE#         42204
  C:A1FCH         LINE#         42205
  C:A1FDH         LINE#         42206
  C:A200H         LINE#         42207
  C:A202H         LINE#         42208
  C:A204H         LINE#         42209
  C:A207H         LINE#         42212
  C:A209H         LINE#         42213
  C:A20BH         LINE#         42214
  C:A20EH         LINE#         42217
  C:A211H         LINE#         42218
  C:A213H         LINE#         42219
  C:A215H         LINE#         42220
  C:A218H         LINE#         42223
  C:A21AH         LINE#         42224
  C:A21CH         LINE#         42225
  C:A21FH         LINE#         42228
BL51 BANKED LINKER/LOCATER V5.12                                                      02/19/2014  16:34:22  PAGE 96


  C:A222H         LINE#         42229
  C:A224H         LINE#         42230
  C:A226H         LINE#         42231
  C:A229H         LINE#         42234
  C:A22BH         LINE#         42235
  C:A22DH         LINE#         42236
  C:A230H         LINE#         42239
  C:A233H         LINE#         42240
  C:A235H         LINE#         42241
  C:A237H         LINE#         42242
  C:A23AH         LINE#         42245
  C:A23CH         LINE#         42246
  C:A23EH         LINE#         42247
  C:A241H         LINE#         42250
  C:A244H         LINE#         42251
  C:A246H         LINE#         42252
  C:A248H         LINE#         42253
  C:A24BH         LINE#         42256
  C:A24DH         LINE#         42257
  C:A24FH         LINE#         42258
  C:A252H         LINE#         42261
  C:A254H         LINE#         42262
  C:A255H         LINE#         42263
  C:A256H         LINE#         42264
  C:A259H         LINE#         42265
  C:A25BH         LINE#         42266
  C:A25DH         LINE#         42267
  C:A260H         LINE#         42270
  C:A262H         LINE#         42271
  C:A263H         LINE#         42272
  C:A266H         LINE#         42273
  C:A267H         LINE#         42274
  C:A269H         LINE#         42275
  C:A26CH         LINE#         42278
  C:A26EH         LINE#         42279
  C:A26FH         LINE#         42280
  C:A272H         LINE#         42281
  C:A274H         LINE#         42282
  C:A276H         LINE#         42283
  C:A279H         LINE#         42286
  C:A27BH         LINE#         42287
  C:A27CH         LINE#         42288
  C:A27FH         LINE#         42289
  C:A281H         LINE#         42290
  C:A284H         LINE#         42293
  C:A286H         LINE#         42294
  C:A287H         LINE#         42295
  C:A28AH         LINE#         42296
  C:A28CH         LINE#         42297
  C:A28EH         LINE#         42298
  C:A291H         LINE#         42301
  C:A293H         LINE#         42302
  C:A294H         LINE#         42303
  C:A297H         LINE#         42304
  C:A298H         LINE#         42305
  C:A299H         LINE#         42306
  C:A29CH         LINE#         42309
BL51 BANKED LINKER/LOCATER V5.12                                                      02/19/2014  16:34:22  PAGE 97


  C:A29EH         LINE#         42310
  C:A29FH         LINE#         42311
  C:A2A2H         LINE#         42312
  C:A2A4H         LINE#         42313
  C:A2A5H         LINE#         42314
  C:A2A8H         LINE#         42317
  C:A2AAH         LINE#         42318
  C:A2ABH         LINE#         42319
  C:A2AEH         LINE#         42320
  C:A2AFH         LINE#         42321
  C:A2B0H         LINE#         42322
  C:A2B3H         LINE#         42325
  C:A2B5H         LINE#         42326
  C:A2B6H         LINE#         42327
  C:A2B9H         LINE#         42328
  C:A2BBH         LINE#         42329
  C:A2BDH         LINE#         42330
  C:A2C0H         LINE#         42333
  C:A2C2H         LINE#         42334
  C:A2C3H         LINE#         42335
  C:A2C6H         LINE#         42336
  C:A2C7H         LINE#         42337
  C:A2C8H         LINE#         42338
  C:A2CBH         LINE#         42341
  C:A2CDH         LINE#         42342
  C:A2CEH         LINE#         42343
  C:A2D1H         LINE#         42344
  C:A2D3H         LINE#         42345
  C:A2D4H         LINE#         42346
  C:A2D7H         LINE#         42349
  C:A2D9H         LINE#         42350
  C:A2DAH         LINE#         42351
  C:A2DDH         LINE#         42352
  C:A2DEH         LINE#         42353
  C:A2DFH         LINE#         42354
  C:A2E2H         LINE#         42357
  C:A2E4H         LINE#         42358
  C:A2E5H         LINE#         42359
  C:A2E8H         LINE#         42360
  C:A2EAH         LINE#         42361
  C:A2ECH         LINE#         42362
  C:A2EFH         LINE#         42365
  C:A2F1H         LINE#         42366
  C:A2F2H         LINE#         42367
  C:A2F5H         LINE#         42368
  C:A2F6H         LINE#         42369
  C:A2F7H         LINE#         42370
  C:A2FAH         LINE#         42373
  C:A2FCH         LINE#         42374
  C:A2FDH         LINE#         42375
  C:A300H         LINE#         42376
  C:A302H         LINE#         42377
  C:A304H         LINE#         42378
  C:A307H         LINE#         42381
  C:A309H         LINE#         42382
  C:A30AH         LINE#         42383
  C:A30DH         LINE#         42384
BL51 BANKED LINKER/LOCATER V5.12                                                      02/19/2014  16:34:22  PAGE 98


  C:A30FH         LINE#         42385
  C:A311H         LINE#         42386
  C:A314H         LINE#         42389
  C:A316H         LINE#         42390
  C:A317H         LINE#         42391
  C:A31AH         LINE#         42392
  C:A31CH         LINE#         42393
  C:A31EH         LINE#         42394
  C:A321H         LINE#         42397
  C:A323H         LINE#         42398
  C:A324H         LINE#         42399
  C:A327H         LINE#         42400
  C:A329H         LINE#         42401
  C:A32BH         LINE#         42402
  C:A32EH         LINE#         42405
  C:A330H         LINE#         42406
  C:A331H         LINE#         42407
  C:A334H         LINE#         42408
  C:A336H         LINE#         42409
  C:A338H         LINE#         42410
  C:A33BH         LINE#         42413
  C:A33DH         LINE#         42414
  C:A33EH         LINE#         42415
  C:A341H         LINE#         42416
  C:A343H         LINE#         42417
  C:A345H         LINE#         42418
  C:A348H         LINE#         42421
  C:A34AH         LINE#         42422
  C:A34BH         LINE#         42423
  C:A34EH         LINE#         42424
  C:A350H         LINE#         42425
  C:A352H         LINE#         42426
  C:A355H         LINE#         42429
  C:A357H         LINE#         42430
  C:A358H         LINE#         42431
  C:A35BH         LINE#         42432
  C:A35CH         LINE#         42433
  C:A35EH         LINE#         42434
  C:A361H         LINE#         42437
  C:A363H         LINE#         42438
  C:A364H         LINE#         42439
  C:A367H         LINE#         42440
  C:A369H         LINE#         42441
  C:A36BH         LINE#         42442
  C:A36EH         LINE#         42445
  C:A370H         LINE#         42446
  C:A371H         LINE#         42447
  C:A374H         LINE#         42448
  C:A376H         LINE#         42449
  C:A378H         LINE#         42450
  C:A37BH         LINE#         42453
  C:A37DH         LINE#         42454
  C:A37EH         LINE#         42455
  C:A381H         LINE#         42456
  C:A382H         LINE#         42457
  C:A383H         LINE#         42458
  C:A386H         LINE#         42461
BL51 BANKED LINKER/LOCATER V5.12                                                      02/19/2014  16:34:22  PAGE 99


  C:A388H         LINE#         42462
  C:A389H         LINE#         42463
  C:A38CH         LINE#         42464
  C:A38DH         LINE#         42465
  C:A38EH         LINE#         42466
  C:A391H         LINE#         42469
  C:A393H         LINE#         42470
  C:A394H         LINE#         42471
  C:A397H         LINE#         42472
  C:A399H         LINE#         42473
  C:A39BH         LINE#         42474
  C:A39EH         LINE#         42477
  C:A3A0H         LINE#         42478
  C:A3A2H         LINE#         42479
  C:A3A5H         LINE#         42482
  C:A3A7H         LINE#         42483
  C:A3A8H         LINE#         42484
  C:A3A9H         LINE#         42485
  C:A3ACH         LINE#         42486
  C:A3AEH         LINE#         42487
  C:A3AFH         LINE#         42488
  C:A3B2H         LINE#         42491
  C:A3B4H         LINE#         42492
  C:A3B5H         LINE#         42493
  C:A3B8H         LINE#         42496
  C:A3BAH         LINE#         42497
  C:A3BBH         LINE#         42498
  C:A3BCH         LINE#         42499
  C:A3BFH         LINE#         42500
  C:A3C1H         LINE#         42501
  C:A3C2H         LINE#         42502
  C:A3C5H         LINE#         42505
  C:A3C7H         LINE#         42508
  -------         ENDMOD        S6D0154

  -------         MODULE        SERIAL
  C:0000H         SYMBOL        _ICE_DUMMY_
  X:001EH         PUBLIC        get_i
  D:00A8H         PUBLIC        IE
  D:00B8H         PUBLIC        IP
  C:AFB8H         PUBLIC        UART_Interrupt_Receive
  B:0098H.0       PUBLIC        RI
  B:0098H.1       PUBLIC        TI
  D:00D8H         PUBLIC        CCON
  C:0003H         PUBLIC        soft_reset_to_ISP_Monitor
  D:0099H         PUBLIC        SBUF
  D:0098H         PUBLIC        SCON
  D:0088H         PUBLIC        TCON
  D:00C7H         PUBLIC        IAP_CONTR
  X:001FH         PUBLIC        DataToSend
  C:B259H         PUBLIC        _SerialSend
  C:B1E8H         PUBLIC        _delayms
  X:0021H         PUBLIC        DisplayData
  X:0055H         PUBLIC        LenToSend
  D:00D0H         PUBLIC        PSW
  -------         PROC          _DELAYMS
  D:0006H         SYMBOL        tt
BL51 BANKED LINKER/LOCATER V5.12                                                      02/19/2014  16:34:22  PAGE 100


  -------         DO            
  D:0004H         SYMBOL        i
  D:0005H         SYMBOL        j
  -------         ENDDO         
  C:B1E8H         LINE#         27
  C:B1E8H         LINE#         28
  C:B1E8H         LINE#         31
  C:B1F1H         LINE#         32
  C:B1F1H         LINE#         33
  C:B1F6H         LINE#         34
  C:B1FEH         LINE#         35
  C:B1FEH         LINE#         36
  C:B200H         LINE#         37
  C:B200H         LINE#         38
  C:B205H         LINE#         39
  C:B208H         LINE#         40
  C:B208H         LINE#         41
  -------         ENDPROC       _DELAYMS
  -------         PROC          SOFT_RESET_TO_ISP_MONITOR
  C:0003H         LINE#         44
  C:0003H         LINE#         45
  C:0003H         LINE#         46
  C:0006H         LINE#         47
  -------         ENDPROC       SOFT_RESET_TO_ISP_MONITOR
  -------         PROC          UART_INTERRUPT_RECEIVE
  -------         DO            
  D:0007H         SYMBOL        k
  -------         ENDDO         
  C:AFB8H         LINE#         50
  C:AFC9H         LINE#         53
  C:AFCCH         LINE#         54
  C:AFCCH         LINE#         55
  C:AFCEH         LINE#         56
  C:AFD0H         LINE#         57
  C:AFD9H         LINE#         58
  C:AFD9H         LINE#         59
  C:AFDEH         LINE#         60
  C:AFE3H         LINE#         61
  C:AFE3H         LINE#         62
  C:AFE9H         LINE#         63
  C:AFECH         LINE#         64
  C:AFECH         LINE#         65
  C:AFEEH         LINE#         67
  C:AFEEH         LINE#         68
  C:AFF6H         LINE#         69
  C:AFF6H         LINE#         70
  C:AFF9H         LINE#         71
  C:AFF9H         LINE#         72
  C:AFFDH         LINE#         73
  C:AFFDH         LINE#         74
  C:AFFFH         LINE#         76
  C:AFFFH         LINE#         77
  C:B001H         LINE#         78
  C:B006H         LINE#         79
  C:B006H         LINE#         80
  C:B009H         LINE#         81
  C:B00EH         LINE#         82
BL51 BANKED LINKER/LOCATER V5.12                                                      02/19/2014  16:34:22  PAGE 101


  C:B010H         LINE#         84
  C:B014H         LINE#         85
  C:B014H         LINE#         86
  C:B014H         LINE#         87
  -------         ENDPROC       UART_INTERRUPT_RECEIVE
  -------         PROC          _SERIALSEND
  D:0006H         SYMBOL        Data
  D:0005H         SYMBOL        Len
  C:B259H         LINE#         90
  C:B259H         LINE#         91
  C:B259H         LINE#         92
  C:B25CH         LINE#         93
  C:B25CH         LINE#         94
  C:B25EH         LINE#         95
  C:B25FH         LINE#         96
  C:B25FH         LINE#         97
  C:B263H         LINE#         98
  C:B26AH         LINE#         99
  -------         ENDPROC       _SERIALSEND
  -------         ENDMOD        SERIAL

  -------         MODULE        ?C?COPY
  C:AC2BH         PUBLIC        ?C?COPY
  -------         ENDMOD        ?C?COPY

  -------         MODULE        ?C?CLDPTR
  C:AC51H         PUBLIC        ?C?CLDPTR
  -------         ENDMOD        ?C?CLDPTR

  -------         MODULE        ?C?IMUL
  C:AC6AH         PUBLIC        ?C?IMUL
  -------         ENDMOD        ?C?IMUL

  -------         MODULE        ?C?OFFXADD
  C:AC7CH         PUBLIC        ?C?OFFXADD
  -------         ENDMOD        ?C?OFFXADD

*** WARNING L16: UNCALLED SEGMENT, IGNORED FOR OVERLAY PROCESS
    SEGMENT: ?PR?DISPLAY_RED?S6D0154

*** WARNING L16: UNCALLED SEGMENT, IGNORED FOR OVERLAY PROCESS
    SEGMENT: ?PR?DISPLAY_GREEN?S6D0154

*** WARNING L16: UNCALLED SEGMENT, IGNORED FOR OVERLAY PROCESS
    SEGMENT: ?PR?DISPLAY_BLUE?S6D0154

*** WARNING L16: UNCALLED SEGMENT, IGNORED FOR OVERLAY PROCESS
    SEGMENT: ?PR?DISPLAY_BLACK?S6D0154

*** WARNING L16: UNCALLED SEGMENT, IGNORED FOR OVERLAY PROCESS
    SEGMENT: ?PR?DISPLAY_LODING?S6D0154

*** WARNING L16: UNCALLED SEGMENT, IGNORED FOR OVERLAY PROCESS
    SEGMENT: ?PR?DISPLAY_RUNNING1?S6D0154

*** WARNING L16: UNCALLED SEGMENT, IGNORED FOR OVERLAY PROCESS
    SEGMENT: ?PR?DISPLAY_RUNNING2?S6D0154
BL51 BANKED LINKER/LOCATER V5.12                                                      02/19/2014  16:34:22  PAGE 102



*** WARNING L16: UNCALLED SEGMENT, IGNORED FOR OVERLAY PROCESS
    SEGMENT: ?PR?DISPLAY_RUNNING3?S6D0154

*** WARNING L16: UNCALLED SEGMENT, IGNORED FOR OVERLAY PROCESS
    SEGMENT: ?PR?_SERIALSEND?SERIAL

Program Size: data=9.0 xdata=144 code=45716
LINK/LOCATE RUN COMPLETE.  9 WARNING(S),  0 ERROR(S)
