; .\Obj\s6d0154.SRC generated from: Src\s6d0154.c
; COMPILER INVOKED BY:
;        C:\Keil\C51\BIN\C51.EXE Src\s6d0154.c BROWSE INCDIR(.\Src) DEBUG OBJECTEXTEND PRINT(.\Lst\s6d0154.lst) SRC(.\Obj\s6d0154.SRC)

$NOMOD51

NAME	S6D0154

P1M0	DATA	092H
P0M1	DATA	093H
P2M0	DATA	096H
P1M1	DATA	091H
P0	DATA	080H
P3M0	DATA	0B2H
P2M1	DATA	095H
P1	DATA	090H
P4M0	DATA	0B4H
P3M1	DATA	0B1H
P2	DATA	0A0H
P5M0	DATA	0CAH
P4M1	DATA	0B3H
P3	DATA	0B0H
P5M1	DATA	0C9H
P4	DATA	0C0H
AC	BIT	0D0H.6
P5	DATA	0C8H
EA	BIT	0A8H.7
SPCTL	DATA	0CEH
CF	BIT	0D8H.7
CH	DATA	0F9H
EADC	BIT	0A8H.5
IE	DATA	0A8H
CL	DATA	0E9H
IAP_CMD	DATA	0C5H
CCAP0H	DATA	0FAH
CCAP1H	DATA	0FBH
ADC_RES	DATA	0BDH
IPH2	DATA	0B6H
CCAP0L	DATA	0EAH
CR	BIT	0D8H.6
CCAP1L	DATA	0EBH
CCAPM0	DATA	0DAH
CCAPM1	DATA	0DBH
ES	BIT	0A8H.4
PADC	BIT	0B8H.5
IP	DATA	0B8H
RI	BIT	098H.0
CY	BIT	0D0H.7
TI	BIT	098H.1
CLK_DIV	DATA	097H
IAP_ADDRH	DATA	0C3H
PS	BIT	0B8H.4
SP	DATA	081H
IAP_ADDRL	DATA	0C4H
CMOD	DATA	0D9H
CCON	DATA	0D8H
PPCA	BIT	0B8H.7
OV	BIT	0D0H.2
ELVD	BIT	0A8H.6
LCD_RST	BIT	090H.4
P4SW	DATA	0BBH
ADC_CONTR	DATA	0BCH
SBUF	DATA	099H
PCON	DATA	087H
SCON	DATA	098H
WAKE_CLKO	DATA	08FH
TMOD	DATA	089H
TCON	DATA	088H
PLVD	BIT	0B8H.6
LCD_DC	BIT	090H.1
IE0	BIT	088H.1
BUS_SPEED	DATA	0A1H
IE1	BIT	088H.3
IE2	DATA	0AFH
AUXR	DATA	08EH
B	DATA	0F0H
IAP_CONTR	DATA	0C7H
ACC	DATA	0E0H
ET0	BIT	0A8H.1
LCD_RD	BIT	090H.3
LCD_CS	BIT	090H.0
TF0	BIT	088H.5
ET1	BIT	0A8H.3
TF1	BIT	088H.7
IP2	DATA	0B5H
RB8	BIT	098H.2
TH0	DATA	08CH
TH1	DATA	08DH
IT0	BIT	088H.0
EX0	BIT	0A8H.0
TB8	BIT	098H.3
IT1	BIT	088H.2
EX1	BIT	0A8H.2
P	BIT	0D0H.0
SM0	BIT	098H.7
TL0	DATA	08AH
SM1	BIT	098H.6
TL1	DATA	08BH
SM2	BIT	098H.5
PT0	BIT	0B8H.1
PT1	BIT	0B8H.3
RS0	BIT	0D0H.3
IAP_DATA	DATA	0C2H
TR0	BIT	088H.4
RS1	BIT	0D0H.4
TR1	BIT	088H.6
WDT_CONTR	DATA	0C1H
PX0	BIT	0B8H.0
PX1	BIT	0B8H.2
PCA_PWM0	DATA	0F2H
PCA_PWM1	DATA	0F3H
P1ASF	DATA	09DH
DPH	DATA	083H
LCD_WR	BIT	090H.2
ADC_RESL	DATA	0BEH
DPL	DATA	082H
SPSTAT	DATA	0CDH
IPH	DATA	0B7H
S2BUF	DATA	09BH
REN	BIT	098H.4
S2CON	DATA	09AH
BRT	DATA	09CH
SADEN	DATA	0B9H
SADDR	DATA	0A9H
IAP_TRIG	DATA	0C6H
AUXR1	DATA	0A2H
F0	BIT	0D0H.5
PSW	DATA	0D0H
CCF0	BIT	0D8H.0
SPDAT	DATA	0CFH
CCF1	BIT	0D8H.1
P0M0	DATA	094H
?PR?_delayms?S6D0154 SEGMENT CODE 
?PR?_Write_DATA?S6D0154                  SEGMENT CODE 
?PR?_Write_COMD?S6D0154                  SEGMENT CODE 
?PR?Display_Red?S6D0154                  SEGMENT CODE 
?DT?Display_Red?S6D0154                  SEGMENT DATA OVERLAYABLE 
?PR?Display_Green?S6D0154                SEGMENT CODE 
?PR?Display_Blue?S6D0154                 SEGMENT CODE 
?PR?Display_White?S6D0154                SEGMENT CODE 
?PR?Display_Black?S6D0154                SEGMENT CODE 
?DT?Display_Black?S6D0154                SEGMENT DATA OVERLAYABLE 
?PR?_LCD_Writ_Bus?S6D0154                SEGMENT CODE 
?PR?_LCD_Write_COM?S6D0154               SEGMENT CODE 
?PR?_LCD_Write_DATA?S6D0154              SEGMENT CODE 
?PR?_Pant?S6D0154    SEGMENT CODE 
?DT?_Pant?S6D0154    SEGMENT DATA OVERLAYABLE 
?PR?_Address_set?S6D0154                 SEGMENT CODE 
?DT?_Address_set?S6D0154                 SEGMENT DATA OVERLAYABLE 
?PR?_ChineseChar?S6D0154                 SEGMENT CODE 
?DT?_ChineseChar?S6D0154                 SEGMENT DATA OVERLAYABLE 
?PR?_LCD_ShowChar?S6D0154                SEGMENT CODE 
?DT?_LCD_ShowChar?S6D0154                SEGMENT DATA OVERLAYABLE 
?PR?_LCD_ShowString?S6D0154              SEGMENT CODE 
?DT?_LCD_ShowString?S6D0154              SEGMENT DATA OVERLAYABLE 
?PR?LCD_Init?S6D0154 SEGMENT CODE 
?C_INITSEG           SEGMENT CODE 
?CO?S6D0154          SEGMENT CODE 
?DT?S6D0154          SEGMENT DATA 
	EXTRN	CODE (?C?COPY)
	EXTRN	CODE (?C?IMUL)
	EXTRN	CODE (?C?CLDPTR)
	EXTRN	CODE (?C?SIDIV)
	EXTRN	CODE (?C?OFFXADD)
	PUBLIC	colors
	PUBLIC	Font16x24
	PUBLIC	Font8x16
	PUBLIC	hz16
	PUBLIC	hz24
	PUBLIC	hz32
	PUBLIC	LCD_Init
	PUBLIC	?_LCD_ShowString?BYTE
	PUBLIC	_LCD_ShowString
	PUBLIC	?_LCD_ShowChar?BYTE
	PUBLIC	_LCD_ShowChar
	PUBLIC	?_ChineseChar?BYTE
	PUBLIC	_ChineseChar
	PUBLIC	?_Address_set?BYTE
	PUBLIC	_Address_set
	PUBLIC	_Pant
	PUBLIC	_LCD_Write_DATA
	PUBLIC	_LCD_Write_COM
	PUBLIC	_LCD_Writ_Bus
	PUBLIC	Display_Black
	PUBLIC	Display_White
	PUBLIC	Display_Blue
	PUBLIC	Display_Green
	PUBLIC	Display_Red
	PUBLIC	_Write_COMD
	PUBLIC	_Write_DATA
	PUBLIC	_delayms

	RSEG  ?DT?Display_Black?S6D0154
?Display_Black?BYTE:
          j?757:   DS   2

	RSEG  ?DT?_ChineseChar?S6D0154
?_ChineseChar?BYTE:
         x?1373:   DS   2
         y?1374:   DS   2
      size?1375:   DS   2
 For_color?1376:   DS   2
  Bk_color?1377:   DS   2
         c?1378:   DS   1
	ORG  11
         e?1379:   DS   2
         i?1380:   DS   2
        ed?1382:   DS   2
     ncols?1383:   DS   2
     nrows?1384:   DS   2
    nbytes?1385:   DS   2
     pchar?1387:   DS   3
 fonttable?1388:   DS   9

	RSEG  ?DT?_LCD_ShowString?S6D0154
?_LCD_ShowString?BYTE:
        x?15100:   DS   2
        y?15101:   DS   2
For_color?15102:   DS   2
 Bk_color?15103:   DS   2
        p?15104:   DS   3

	RSEG  ?DT?_LCD_ShowChar?S6D0154
?_LCD_ShowChar?BYTE:
         x?1489:   DS   2
         y?1490:   DS   2
 For_color?1491:   DS   2
  Bk_color?1492:   DS   2
        ch?1493:   DS   1
	ORG  9
    CHAR_W?1498:   DS   2
    CHAR_H?1499:   DS   2

	RSEG  ?DT?Display_Red?S6D0154
?Display_Red?BYTE:
          k?349:   DS   2

	RSEG  ?DT?_Address_set?S6D0154
?_Address_set?BYTE:
        x1?1269:   DS   2
        y1?1270:   DS   2
        x2?1271:   DS   2
        y2?1272:   DS   2

	RSEG  ?DT?_Pant?S6D0154
?_Pant?BYTE:
        VH?1165:   DS   1
        VL?1166:   DS   1

	RSEG  ?DT?S6D0154
         colors:   DS   16

	RSEG  ?CO?S6D0154
hz32:
	DB	000H
	DB	000H
	DB	000H
	DB	000H
	DB	000H
	DB	000H
	DB	000H
	DB	000H
	DB	000H
	DB	000H
	DB	000H
	DB	000H
	DB	000H
	DB	000H
	DB	000H
	DB	000H
	DB	0FEH
	DB	0FFH
	DB	000H
	DB	000H
	DB	0FCH
	DB	07FH
	DB	000H
	DB	000H
	DB	008H
	DB	042H
	DB	000H
	DB	000H
	DB	008H
	DB	042H
	DB	000H
	DB	000H
	DB	008H
	DB	042H
	DB	000H
	DB	000H
	DB	008H
	DB	042H
	DB	0FEH
	DB	01FH
	DB	008H
	DB	042H
	DB	0FEH
	DB	01FH
	DB	008H
	DB	042H
	DB	088H
	DB	008H
	DB	0FCH
	DB	07FH
	DB	088H
	DB	008H
	DB	0FCH
	DB	0FFH
	DB	088H
	DB	008H
	DB	000H
	DB	040H
	DB	088H
	DB	008H
	DB	000H
	DB	000H
	DB	088H
	DB	008H
	DB	000H
	DB	000H
	DB	088H
	DB	008H
	DB	000H
	DB	000H
	DB	088H
	DB	008H
	DB	0FEH
	DB	0FFH
	DB	088H
	DB	008H
	DB	0FCH
	DB	07FH
	DB	088H
	DB	008H
	DB	008H
	DB	042H
	DB	088H
	DB	008H
	DB	008H
	DB	042H
	DB	088H
	DB	008H
	DB	008H
	DB	042H
	DB	0FEH
	DB	01FH
	DB	008H
	DB	042H
	DB	0FCH
	DB	01FH
	DB	008H
	DB	042H
	DB	000H
	DB	008H
	DB	008H
	DB	042H
	DB	000H
	DB	000H
	DB	008H
	DB	042H
	DB	000H
	DB	000H
	DB	0FCH
	DB	0FFH
	DB	000H
	DB	000H
	DB	000H
	DB	040H
	DB	000H
	DB	000H
	DB	000H
	DB	000H
	DB	000H
	DB	000H
	DB	000H
	DB	000H
	DB	000H
	DB	000H
	DB	000H
	DB	000H
	DB	000H
	DB	000H
	DB	000H
	DB	000H
	DB	000H
	DB	000H
	DB	000H
	DB	000H
	DB	000H
	DB	000H
	DB	000H
	DB	002H
	DB	010H
	DB	000H
	DB	000H
	DB	002H
	DB	00CH
	DB	000H
	DB	03CH
	DB	003H
	DB	007H
	DB	000H
	DB	0FCH
	DB	003H
	DB	007H
	DB	008H
	DB	000H
	DB	00FH
	DB	000H
	DB	006H
	DB	000H
	DB	070H
	DB	080H
	DB	007H
	DB	000H
	DB	088H
	DB	007H
	DB	003H
	DB	000H
	DB	010H
	DB	018H
	DB	000H
	DB	000H
	DB	060H
	DB	000H
	DB	000H
	DB	000H
	DB	0C0H
	DB	000H
	DB	000H
	DB	002H
	DB	080H
	DB	003H
	DB	001H
	DB	0FEH
	DB	0FFH
	DB	00FH
	DB	001H
	DB	001H
	DB	000H
	DB	079H
	DB	001H
	DB	002H
	DB	008H
	DB	0E0H
	DB	001H
	DB	002H
	DB	030H
	DB	040H
	DB	001H
	DB	004H
	DB	0C0H
	DB	000H
	DB	001H
	DB	008H
	DB	0E0H
	DB	003H
	DB	021H
	DB	010H
	DB	018H
	DB	01EH
	DB	019H
	DB	070H
	DB	006H
	DB	0F9H
	DB	01EH
	DB	0E0H
	DB	081H
	DB	069H
	DB	00DH
	DB	0C0H
	DB	0E1H
	DB	008H
	DB	001H
	DB	060H
	DB	047H
	DB	008H
	DB	001H
	DB	030H
	DB	03CH
	DB	008H
	DB	001H
	DB	038H
	DB	0F0H
	DB	00BH
	DB	001H
	DB	01CH
	DB	080H
	DB	01FH
	DB	001H
	DB	00CH
	DB	000H
	DB	008H
	DB	006H
	DB	00CH
	DB	000H
	DB	000H
	DB	006H
	DB	008H
	DB	000H
	DB	000H
	DB	002H
	DB	000H
	DB	000H
	DB	000H
	DB	000H
	DB	000H
	DB	000H
	DB	000H
	DB	000H
	DB	000H
	DB	000H
	DB	000H
	DB	000H
	DB	000H
	DB	000H
	DB	000H
	DB	000H
	DB	000H
	DB	000H
	DB	000H
	DB	000H
	DB	000H
	DB	040H
	DB	000H
	DB	000H
	DB	000H
	DB	080H
	DB	001H
	DB	000H
	DB	000H
	DB	000H
	DB	003H
	DB	000H
	DB	000H
	DB	000H
	DB	007H
	DB	000H
	DB	000H
	DB	000H
	DB	00EH
	DB	000H
	DB	000H
	DB	004H
	DB	00EH
	DB	000H
	DB	000H
	DB	01CH
	DB	00CH
	DB	000H
	DB	000H
	DB	00CH
	DB	00CH
	DB	000H
	DB	000H
	DB	00CH
	DB	000H
	DB	000H
	DB	000H
	DB	00CH
	DB	000H
	DB	001H
	DB	000H
	DB	00CH
	DB	000H
	DB	002H
	DB	020H
	DB	00CH
	DB	000H
	DB	006H
	DB	020H
	DB	00CH
	DB	000H
	DB	00CH
	DB	020H
	DB	00CH
	DB	000H
	DB	01CH
	DB	020H
	DB	00CH
	DB	000H
	DB	018H
	DB	030H
	DB	00CH
	DB	000H
	DB	038H
	DB	038H
	DB	00CH
	DB	080H
	DB	038H
	DB	03CH
	DB	00CH
	DB	080H
	DB	038H
	DB	01CH
	DB	00CH
	DB	080H
	DB	010H
	DB	01CH
	DB	00CH
	DB	080H
	DB	000H
	DB	000H
	DB	00CH
	DB	080H
	DB	000H
	DB	000H
	DB	00CH
	DB	080H
	DB	000H
	DB	000H
	DB	00CH
	DB	0C0H
	DB	000H
	DB	000H
	DB	00CH
	DB	0C0H
	DB	001H
	DB	000H
	DB	0FCH
	DB	0FFH
	DB	001H
	DB	000H
	DB	0F8H
	DB	07FH
	DB	000H
	DB	000H
	DB	000H
	DB	000H
	DB	000H
	DB	000H
	DB	000H
	DB	000H
	DB	000H
	DB	000H
	DB	000H
	DB	000H
	DB	000H
	DB	000H
	DB	000H
	DB	000H
	DB	000H
	DB	000H
	DB	000H
	DB	000H
	DB	000H
	DB	000H
	DB	000H
	DB	001H
	DB	000H
	DB	000H
	DB	007H
	DB	003H
	DB	000H
	DB	000H
	DB	083H
	DB	001H
	DB	000H
	DB	000H
	DB	083H
	DB	001H
	DB	000H
	DB	080H
	DB	0C1H
	DB	000H
	DB	000H
	DB	080H
	DB	0C1H
	DB	000H
	DB	018H
	DB	080H
	DB	040H
	DB	0FFH
	DB	007H
	DB	0C0H
	DB	060H
	DB	004H
	DB	000H
	DB	040H
	DB	030H
	DB	01CH
	DB	000H
	DB	0E0H
	DB	010H
	DB	00CH
	DB	000H
	DB	0A0H
	DB	019H
	DB	00CH
	DB	000H
	DB	0B0H
	DB	008H
	DB	00CH
	DB	000H
	DB	090H
	DB	004H
	DB	00CH
	DB	000H
	DB	088H
	DB	002H
	DB	00CH
	DB	00CH
	DB	088H
	DB	0F0H
	DB	0FFH
	DB	01FH
	DB	084H
	DB	000H
	DB	00CH
	DB	00CH
	DB	082H
	DB	000H
	DB	004H
	DB	00CH
	DB	080H
	DB	000H
	DB	004H
	DB	00CH
	DB	080H
	DB	000H
	DB	006H
	DB	00CH
	DB	080H
	DB	000H
	DB	006H
	DB	00CH
	DB	080H
	DB	000H
	DB	006H
	DB	00CH
	DB	080H
	DB	000H
	DB	002H
	DB	004H
	DB	080H
	DB	000H
	DB	003H
	DB	006H
	DB	080H
	DB	000H
	DB	003H
	DB	006H
	DB	0C0H
	DB	080H
	DB	001H
	DB	006H
	DB	0C0H
	DB	080H
	DB	000H
	DB	006H
	DB	0C0H
	DB	0C0H
	DB	038H
	DB	007H
	DB	0C0H
	DB	020H
	DB	0E0H
	DB	003H
	DB	0C0H
	DB	018H
	DB	080H
	DB	003H
	DB	0C0H
	DB	006H
	DB	080H
	DB	000H
	DB	000H
	DB	000H
	DB	000H
	DB	000H
	DB	000H
	DB	000H
	DB	000H
	DB	000H

hz24:
	DB	000H
	DB	000H
	DB	000H
	DB	000H
	DB	000H
	DB	000H
	DB	0C0H
	DB	018H
	DB	000H
	DB	040H
	DB	018H
	DB	006H
	DB	0A0H
	DB	0FFH
	DB	001H
	DB	010H
	DB	018H
	DB	000H
	DB	000H
	DB	018H
	DB	030H
	DB	0FCH
	DB	0E7H
	DB	00FH
	DB	040H
	DB	000H
	DB	002H
	DB	0C0H
	DB	0FFH
	DB	003H
	DB	040H
	DB	000H
	DB	002H
	DB	0C0H
	DB	0FFH
	DB	003H
	DB	040H
	DB	021H
	DB	000H
	DB	000H
	DB	062H
	DB	010H
	DB	0FCH
	DB	0E3H
	DB	03FH
	DB	000H
	DB	062H
	DB	000H
	DB	000H
	DB	062H
	DB	008H
	DB	0F8H
	DB	0E3H
	DB	007H
	DB	000H
	DB	062H
	DB	000H
	DB	000H
	DB	0E2H
	DB	03FH
	DB	0FCH
	DB	063H
	DB	000H
	DB	000H
	DB	062H
	DB	000H
	DB	000H
	DB	062H
	DB	000H
	DB	000H
	DB	000H
	DB	000H
	DB	000H
	DB	000H
	DB	000H
	DB	000H
	DB	000H
	DB	000H
	DB	000H
	DB	000H
	DB	000H
	DB	000H
	DB	000H
	DB	000H
	DB	080H
	DB	000H
	DB	000H
	DB	0C0H
	DB	001H
	DB	000H
	DB	0C0H
	DB	001H
	DB	000H
	DB	0C0H
	DB	000H
	DB	000H
	DB	0C0H
	DB	000H
	DB	000H
	DB	0C0H
	DB	000H
	DB	000H
	DB	0C0H
	DB	000H
	DB	000H
	DB	080H
	DB	000H
	DB	000H
	DB	080H
	DB	000H
	DB	000H
	DB	080H
	DB	000H
	DB	000H
	DB	080H
	DB	000H
	DB	000H
	DB	000H
	DB	000H
	DB	000H
	DB	000H
	DB	000H
	DB	000H
	DB	0C0H
	DB	001H
	DB	000H
	DB	0C0H
	DB	001H
	DB	000H
	DB	0C0H
	DB	001H
	DB	000H
	DB	000H
	DB	000H
	DB	000H
	DB	000H
	DB	000H
	DB	000H
	DB	000H
	DB	000H
	DB	000H
	DB	000H
	DB	000H
	DB	000H
	DB	000H
	DB	000H
	DB	000H
	DB	000H
	DB	008H
	DB	000H
	DB	000H
	DB	030H
	DB	000H
	DB	000H
	DB	030H
	DB	000H
	DB	010H
	DB	020H
	DB	030H
	DB	0F0H
	DB	0DFH
	DB	00FH
	DB	030H
	DB	030H
	DB	000H
	DB	030H
	DB	030H
	DB	000H
	DB	030H
	DB	030H
	DB	000H
	DB	010H
	DB	030H
	DB	018H
	DB	010H
	DB	0F0H
	DB	007H
	DB	010H
	DB	030H
	DB	000H
	DB	010H
	DB	030H
	DB	000H
	DB	010H
	DB	030H
	DB	000H
	DB	010H
	DB	031H
	DB	008H
	DB	010H
	DB	0CFH
	DB	00FH
	DB	010H
	DB	001H
	DB	008H
	DB	018H
	DB	001H
	DB	008H
	DB	008H
	DB	001H
	DB	008H
	DB	008H
	DB	001H
	DB	008H
	DB	004H
	DB	0FFH
	DB	00FH
	DB	004H
	DB	001H
	DB	008H
	DB	002H
	DB	001H
	DB	000H
	DB	000H
	DB	000H
	DB	000H
	DB	000H
	DB	000H
	DB	000H
	DB	000H
	DB	000H
	DB	000H
	DB	000H
	DB	006H
	DB	000H
	DB	000H
	DB	00CH
	DB	000H
	DB	000H
	DB	018H
	DB	000H
	DB	000H
	DB	018H
	DB	000H
	DB	000H
	DB	008H
	DB	010H
	DB	0F8H
	DB	0FFH
	DB	03FH
	DB	000H
	DB	018H
	DB	000H
	DB	000H
	DB	018H
	DB	000H
	DB	000H
	DB	018H
	DB	000H
	DB	000H
	DB	018H
	DB	000H
	DB	000H
	DB	018H
	DB	000H
	DB	000H
	DB	018H
	DB	004H
	DB	0F0H
	DB	0FFH
	DB	00FH
	DB	000H
	DB	018H
	DB	000H
	DB	000H
	DB	018H
	DB	000H
	DB	000H
	DB	018H
	DB	000H
	DB	000H
	DB	018H
	DB	000H
	DB	000H
	DB	018H
	DB	000H
	DB	000H
	DB	018H
	DB	010H
	DB	0FEH
	DB	0FFH
	DB	03FH
	DB	000H
	DB	000H
	DB	000H
	DB	000H
	DB	000H
	DB	000H
	DB	000H
	DB	000H
	DB	000H
	DB	000H
	DB	000H
	DB	000H
	DB	000H
	DB	060H
	DB	000H
	DB	018H
	DB	060H
	DB	000H
	DB	030H
	DB	020H
	DB	010H
	DB	030H
	DB	0FFH
	DB	03FH
	DB	000H
	DB	010H
	DB	000H
	DB	000H
	DB	058H
	DB	000H
	DB	000H
	DB	0C8H
	DB	000H
	DB	020H
	DB	0C4H
	DB	000H
	DB	03CH
	DB	0C6H
	DB	008H
	DB	020H
	DB	0FEH
	DB	01FH
	DB	020H
	DB	0C0H
	DB	000H
	DB	020H
	DB	0C0H
	DB	000H
	DB	020H
	DB	0C0H
	DB	010H
	DB	020H
	DB	0FFH
	DB	03FH
	DB	020H
	DB	0C0H
	DB	000H
	DB	020H
	DB	0C0H
	DB	000H
	DB	030H
	DB	0C0H
	DB	000H
	DB	0CCH
	DB	0C0H
	DB	000H
	DB	006H
	DB	023H
	DB	000H
	DB	000H
	DB	0FEH
	DB	03FH
	DB	000H
	DB	080H
	DB	01FH
	DB	000H
	DB	000H
	DB	000H
	DB	000H
	DB	000H
	DB	000H
	DB	000H
	DB	008H
	DB	000H
	DB	000H
	DB	018H
	DB	000H
	DB	000H
	DB	01CH
	DB	000H
	DB	000H
	DB	01CH
	DB	000H
	DB	000H
	DB	026H
	DB	000H
	DB	000H
	DB	043H
	DB	000H
	DB	000H
	DB	081H
	DB	000H
	DB	080H
	DB	089H
	DB	001H
	DB	0C0H
	DB	018H
	DB	007H
	DB	020H
	DB	018H
	DB	01CH
	DB	018H
	DB	018H
	DB	038H
	DB	004H
	DB	018H
	DB	000H
	DB	002H
	DB	018H
	DB	000H
	DB	000H
	DB	018H
	DB	000H
	DB	000H
	DB	018H
	DB	000H
	DB	000H
	DB	018H
	DB	000H
	DB	000H
	DB	018H
	DB	000H
	DB	000H
	DB	018H
	DB	000H
	DB	000H
	DB	018H
	DB	000H
	DB	000H
	DB	018H
	DB	000H
	DB	000H
	DB	018H
	DB	000H
	DB	000H
	DB	018H
	DB	000H
	DB	000H
	DB	000H
	DB	000H
	DB	000H
	DB	000H
	DB	000H
	DB	000H
	DB	000H
	DB	000H
	DB	080H
	DB	018H
	DB	003H
	DB	080H
	DB	010H
	DB	001H
	DB	080H
	DB	010H
	DB	011H
	DB	0FCH
	DB	0FFH
	DB	03FH
	DB	080H
	DB	010H
	DB	001H
	DB	080H
	DB	010H
	DB	001H
	DB	080H
	DB	018H
	DB	001H
	DB	000H
	DB	000H
	DB	020H
	DB	0F8H
	DB	0FFH
	DB	07FH
	DB	00CH
	DB	010H
	DB	010H
	DB	00CH
	DB	010H
	DB	008H
	DB	040H
	DB	010H
	DB	006H
	DB	0C0H
	DB	0FFH
	DB	005H
	DB	040H
	DB	010H
	DB	004H
	DB	040H
	DB	010H
	DB	004H
	DB	040H
	DB	010H
	DB	004H
	DB	040H
	DB	010H
	DB	004H
	DB	040H
	DB	010H
	DB	006H
	DB	040H
	DB	0D0H
	DB	007H
	DB	000H
	DB	018H
	DB	002H
	DB	000H
	DB	018H
	DB	000H
	DB	000H
	DB	008H
	DB	000H
	DB	000H
	DB	000H
	DB	000H
	DB	000H
	DB	000H
	DB	000H
	DB	008H
	DB	000H
	DB	010H
	DB	0F8H
	DB	0FFH
	DB	01FH
	DB	018H
	DB	006H
	DB	010H
	DB	018H
	DB	082H
	DB	010H
	DB	018H
	DB	0FFH
	DB	011H
	DB	018H
	DB	043H
	DB	010H
	DB	098H
	DB	024H
	DB	010H
	DB	058H
	DB	014H
	DB	010H
	DB	018H
	DB	008H
	DB	010H
	DB	018H
	DB	034H
	DB	010H
	DB	018H
	DB	0E2H
	DB	010H
	DB	098H
	DB	085H
	DB	017H
	DB	078H
	DB	038H
	DB	012H
	DB	018H
	DB	020H
	DB	010H
	DB	018H
	DB	000H
	DB	010H
	DB	018H
	DB	01EH
	DB	010H
	DB	018H
	DB	070H
	DB	010H
	DB	018H
	DB	040H
	DB	010H
	DB	018H
	DB	000H
	DB	010H
	DB	0F8H
	DB	0FFH
	DB	01FH
	DB	018H
	DB	000H
	DB	010H
	DB	000H
	DB	000H
	DB	000H
	DB	000H
	DB	000H
	DB	000H
	DB	000H
	DB	000H
	DB	000H
	DB	000H
	DB	0C0H
	DB	000H
	DB	0C0H
	DB	040H
	DB	000H
	DB	040H
	DB	040H
	DB	000H
	DB	040H
	DB	040H
	DB	000H
	DB	040H
	DB	040H
	DB	000H
	DB	040H
	DB	040H
	DB	010H
	DB	040H
	DB	040H
	DB	038H
	DB	0C0H
	DB	0BFH
	DB	007H
	DB	040H
	DB	000H
	DB	000H
	DB	040H
	DB	000H
	DB	000H
	DB	040H
	DB	000H
	DB	000H
	DB	0C0H
	DB	0FFH
	DB	001H
	DB	040H
	DB	080H
	DB	001H
	DB	040H
	DB	080H
	DB	001H
	DB	060H
	DB	080H
	DB	001H
	DB	020H
	DB	080H
	DB	001H
	DB	020H
	DB	080H
	DB	001H
	DB	010H
	DB	080H
	DB	001H
	DB	018H
	DB	080H
	DB	001H
	DB	008H
	DB	080H
	DB	001H
	DB	004H
	DB	080H
	DB	001H
	DB	000H
	DB	000H
	DB	000H
	DB	000H
	DB	000H
	DB	000H
	DB	000H
	DB	000H
	DB	000H
	DB	000H
	DB	000H
	DB	004H
	DB	0C0H
	DB	0FFH
	DB	00FH
	DB	040H
	DB	000H
	DB	006H
	DB	040H
	DB	000H
	DB	006H
	DB	040H
	DB	000H
	DB	006H
	DB	0C0H
	DB	0FFH
	DB	007H
	DB	040H
	DB	000H
	DB	006H
	DB	040H
	DB	000H
	DB	006H
	DB	0C0H
	DB	0FFH
	DB	007H
	DB	040H
	DB	000H
	DB	006H
	DB	000H
	DB	062H
	DB	000H
	DB	000H
	DB	062H
	DB	008H
	DB	010H
	DB	062H
	DB	018H
	DB	020H
	DB	062H
	DB	00CH
	DB	060H
	DB	062H
	DB	004H
	DB	040H
	DB	062H
	DB	002H
	DB	0C0H
	DB	062H
	DB	001H
	DB	040H
	DB	0E2H
	DB	000H
	DB	000H
	DB	062H
	DB	010H
	DB	0FCH
	DB	0FFH
	DB	03FH
	DB	000H
	DB	000H
	DB	000H
	DB	000H
	DB	000H
	DB	000H
	DB	000H
	DB	000H
	DB	000H
	DB	000H
	DB	000H
	DB	000H
	DB	000H
	DB	000H
	DB	000H
	DB	000H
	DB	000H
	DB	00CH
	DB	0E0H
	DB	0FFH
	DB	003H
	DB	000H
	DB	000H
	DB	000H
	DB	000H
	DB	000H
	DB	000H
	DB	000H
	DB	000H
	DB	000H
	DB	000H
	DB	000H
	DB	000H
	DB	000H
	DB	000H
	DB	030H
	DB	0FCH
	DB	0FFH
	DB	00FH
	DB	000H
	DB	018H
	DB	000H
	DB	080H
	DB	099H
	DB	000H
	DB	0C0H
	DB	018H
	DB	001H
	DB	0C0H
	DB	018H
	DB	002H
	DB	060H
	DB	018H
	DB	004H
	DB	020H
	DB	018H
	DB	008H
	DB	010H
	DB	018H
	DB	018H
	DB	008H
	DB	018H
	DB	030H
	DB	004H
	DB	018H
	DB	030H
	DB	002H
	DB	018H
	DB	000H
	DB	000H
	DB	01FH
	DB	000H
	DB	000H
	DB	00CH
	DB	000H
	DB	000H
	DB	000H
	DB	000H
	DB	000H
	DB	000H
	DB	000H
	DB	000H
	DB	000H
	DB	000H
	DB	0C0H
	DB	080H
	DB	000H
	DB	040H
	DB	0C0H
	DB	000H
	DB	040H
	DB	0C0H
	DB	000H
	DB	020H
	DB	040H
	DB	000H
	DB	0F8H
	DB	067H
	DB	030H
	DB	008H
	DB	0A2H
	DB	03FH
	DB	008H
	DB	032H
	DB	010H
	DB	008H
	DB	012H
	DB	010H
	DB	008H
	DB	00AH
	DB	010H
	DB	008H
	DB	022H
	DB	010H
	DB	008H
	DB	042H
	DB	010H
	DB	0F8H
	DB	0C3H
	DB	010H
	DB	008H
	DB	082H
	DB	010H
	DB	008H
	DB	082H
	DB	010H
	DB	008H
	DB	002H
	DB	010H
	DB	008H
	DB	002H
	DB	010H
	DB	008H
	DB	002H
	DB	010H
	DB	008H
	DB	002H
	DB	018H
	DB	0F8H
	DB	003H
	DB	018H
	DB	008H
	DB	082H
	DB	00FH
	DB	008H
	DB	000H
	DB	004H
	DB	000H
	DB	000H
	DB	000H
	DB	000H
	DB	000H
	DB	000H
	DB	000H
	DB	000H
	DB	000H
	DB	000H
	DB	009H
	DB	010H
	DB	0E0H
	DB	0FBH
	DB	03FH
	DB	05CH
	DB	010H
	DB	010H
	DB	040H
	DB	010H
	DB	010H
	DB	040H
	DB	010H
	DB	010H
	DB	040H
	DB	010H
	DB	010H
	DB	040H
	DB	013H
	DB	010H
	DB	0FCH
	DB	0FCH
	DB	01FH
	DB	060H
	DB	008H
	DB	000H
	DB	0E0H
	DB	000H
	DB	030H
	DB	070H
	DB	0F9H
	DB	00FH
	DB	050H
	DB	003H
	DB	001H
	DB	050H
	DB	002H
	DB	001H
	DB	048H
	DB	000H
	DB	001H
	DB	048H
	DB	000H
	DB	011H
	DB	044H
	DB	0F0H
	DB	00FH
	DB	042H
	DB	000H
	DB	001H
	DB	040H
	DB	000H
	DB	001H
	DB	060H
	DB	000H
	DB	021H
	DB	060H
	DB	0FEH
	DB	07FH
	DB	060H
	DB	000H
	DB	000H
	DB	000H
	DB	000H
	DB	000H
	DB	000H
	DB	000H
	DB	000H
	DB	000H
	DB	004H
	DB	000H
	DB	000H
	DB	018H
	DB	000H
	DB	000H
	DB	010H
	DB	010H
	DB	0F0H
	DB	0FFH
	DB	03FH
	DB	010H
	DB	000H
	DB	000H
	DB	010H
	DB	000H
	DB	000H
	DB	090H
	DB	0FFH
	DB	00FH
	DB	010H
	DB	000H
	DB	006H
	DB	010H
	DB	088H
	DB	001H
	DB	010H
	DB	070H
	DB	000H
	DB	010H
	DB	060H
	DB	000H
	DB	010H
	DB	020H
	DB	030H
	DB	090H
	DB	0FFH
	DB	07FH
	DB	010H
	DB	060H
	DB	018H
	DB	018H
	DB	060H
	DB	004H
	DB	008H
	DB	060H
	DB	000H
	DB	008H
	DB	060H
	DB	000H
	DB	008H
	DB	060H
	DB	000H
	DB	004H
	DB	060H
	DB	000H
	DB	004H
	DB	060H
	DB	000H
	DB	002H
	DB	03CH
	DB	000H
	DB	000H
	DB	030H
	DB	000H
	DB	000H
	DB	000H
	DB	000H
	DB	000H
	DB	000H
	DB	000H
	DB	000H
	DB	000H
	DB	000H
	DB	080H
	DB	001H
	DB	000H
	DB	080H
	DB	090H
	DB	020H
	DB	080H
	DB	0B0H
	DB	03FH
	DB	0F8H
	DB	09FH
	DB	030H
	DB	080H
	DB	088H
	DB	010H
	DB	080H
	DB	08CH
	DB	010H
	DB	080H
	DB	0A6H
	DB	008H
	DB	0FCH
	DB	0FFH
	DB	008H
	DB	000H
	DB	081H
	DB	004H
	DB	080H
	DB	080H
	DB	008H
	DB	050H
	DB	098H
	DB	010H
	DB	0B0H
	DB	08FH
	DB	030H
	DB	028H
	DB	088H
	DB	020H
	DB	026H
	DB	088H
	DB	020H
	DB	0E0H
	DB	08FH
	DB	020H
	DB	020H
	DB	088H
	DB	020H
	DB	020H
	DB	088H
	DB	03CH
	DB	020H
	DB	088H
	DB	010H
	DB	0E0H
	DB	08FH
	DB	000H
	DB	020H
	DB	088H
	DB	000H
	DB	020H
	DB	080H
	DB	000H
	DB	000H
	DB	000H
	DB	000H
	DB	000H
	DB	000H
	DB	000H
	DB	000H
	DB	000H
	DB	000H
	DB	000H
	DB	000H
	DB	010H
	DB	0FCH
	DB	0FFH
	DB	03FH
	DB	000H
	DB	010H
	DB	000H
	DB	000H
	DB	018H
	DB	000H
	DB	000H
	DB	008H
	DB	000H
	DB	000H
	DB	00CH
	DB	000H
	DB	000H
	DB	01CH
	DB	000H
	DB	000H
	DB	01EH
	DB	000H
	DB	000H
	DB	09BH
	DB	001H
	DB	000H
	DB	019H
	DB	002H
	DB	080H
	DB	018H
	DB	00CH
	DB	040H
	DB	018H
	DB	018H
	DB	020H
	DB	018H
	DB	038H
	DB	010H
	DB	018H
	DB	030H
	DB	008H
	DB	018H
	DB	020H
	DB	006H
	DB	018H
	DB	000H
	DB	000H
	DB	018H
	DB	000H
	DB	000H
	DB	018H
	DB	000H
	DB	000H
	DB	018H
	DB	000H
	DB	000H
	DB	018H
	DB	000H
	DB	000H
	DB	018H
	DB	000H
	DB	000H
	DB	000H
	DB	000H
	DB	000H
	DB	000H
	DB	000H
	DB	000H
	DB	000H
	DB	000H
	DB	000H
	DB	000H
	DB	030H
	DB	0F0H
	DB	0FFH
	DB	00FH
	DB	010H
	DB	010H
	DB	000H
	DB	010H
	DB	011H
	DB	00CH
	DB	010H
	DB	0EFH
	DB	00FH
	DB	010H
	DB	001H
	DB	00CH
	DB	010H
	DB	0FFH
	DB	00FH
	DB	010H
	DB	001H
	DB	00CH
	DB	010H
	DB	0FFH
	DB	00FH
	DB	010H
	DB	021H
	DB	004H
	DB	010H
	DB	024H
	DB	000H
	DB	010H
	DB	026H
	DB	00FH
	DB	010H
	DB	021H
	DB	018H
	DB	0D8H
	DB	030H
	DB	030H
	DB	028H
	DB	010H
	DB	000H
	DB	008H
	DB	012H
	DB	008H
	DB	048H
	DB	062H
	DB	032H
	DB	044H
	DB	062H
	DB	022H
	DB	022H
	DB	042H
	DB	062H
	DB	032H
	DB	002H
	DB	006H
	DB	010H
	DB	0FEH
	DB	003H
	DB	000H
	DB	000H
	DB	000H
	DB	000H
	DB	000H
	DB	000H
	DB	000H
	DB	004H
	DB	000H
	DB	000H
	DB	018H
	DB	000H
	DB	000H
	DB	018H
	DB	004H
	DB	0F8H
	DB	0FFH
	DB	00FH
	DB	000H
	DB	0C1H
	DB	000H
	DB	000H
	DB	043H
	DB	000H
	DB	000H
	DB	022H
	DB	030H
	DB	0FCH
	DB	0FFH
	DB	07FH
	DB	000H
	DB	000H
	DB	000H
	DB	0E0H
	DB	0FFH
	DB	003H
	DB	060H
	DB	000H
	DB	002H
	DB	060H
	DB	000H
	DB	002H
	DB	0E0H
	DB	0FFH
	DB	003H
	DB	060H
	DB	000H
	DB	002H
	DB	0E0H
	DB	0FFH
	DB	003H
	DB	060H
	DB	004H
	DB	002H
	DB	080H
	DB	018H
	DB	002H
	DB	090H
	DB	010H
	DB	00DH
	DB	090H
	DB	010H
	DB	019H
	DB	088H
	DB	000H
	DB	031H
	DB	08CH
	DB	000H
	DB	031H
	DB	080H
	DB	0FFH
	DB	001H
	DB	000H
	DB	000H
	DB	000H
	DB	000H
	DB	000H
	DB	000H
	DB	000H
	DB	000H
	DB	000H
	DB	000H
	DB	08CH
	DB	000H
	DB	020H
	DB	006H
	DB	003H
	DB	030H
	DB	006H
	DB	006H
	DB	030H
	DB	006H
	DB	006H
	DB	010H
	DB	002H
	DB	000H
	DB	018H
	DB	002H
	DB	030H
	DB	0E8H
	DB	0FFH
	DB	00FH
	DB	000H
	DB	003H
	DB	000H
	DB	000H
	DB	003H
	DB	000H
	DB	000H
	DB	0FFH
	DB	007H
	DB	000H
	DB	005H
	DB	006H
	DB	080H
	DB	005H
	DB	002H
	DB	080H
	DB	008H
	DB	001H
	DB	0C0H
	DB	090H
	DB	001H
	DB	040H
	DB	090H
	DB	000H
	DB	060H
	DB	060H
	DB	000H
	DB	020H
	DB	060H
	DB	000H
	DB	010H
	DB	0B0H
	DB	001H
	DB	008H
	DB	00CH
	DB	007H
	DB	004H
	DB	002H
	DB	07CH
	DB	0C2H
	DB	001H
	DB	010H
	DB	000H
	DB	000H
	DB	000H
	DB	000H
	DB	000H
	DB	000H
	DB	000H
	DB	000H
	DB	000H
	DB	000H
	DB	008H
	DB	000H
	DB	000H
	DB	018H
	DB	000H
	DB	000H
	DB	018H
	DB	000H
	DB	030H
	DB	018H
	DB	00CH
	DB	030H
	DB	018H
	DB	004H
	DB	030H
	DB	018H
	DB	004H
	DB	030H
	DB	018H
	DB	004H
	DB	030H
	DB	018H
	DB	004H
	DB	030H
	DB	018H
	DB	004H
	DB	0F0H
	DB	0FFH
	DB	007H
	DB	000H
	DB	018H
	DB	00CH
	DB	000H
	DB	018H
	DB	000H
	DB	010H
	DB	018H
	DB	008H
	DB	010H
	DB	018H
	DB	018H
	DB	010H
	DB	018H
	DB	008H
	DB	010H
	DB	018H
	DB	008H
	DB	010H
	DB	018H
	DB	008H
	DB	010H
	DB	018H
	DB	008H
	DB	010H
	DB	018H
	DB	008H
	DB	0F8H
	DB	0E7H
	DB	00FH
	DB	000H
	DB	000H
	DB	008H
	DB	000H
	DB	000H
	DB	000H
	DB	000H
	DB	000H
	DB	000H
	DB	000H
	DB	008H
	DB	000H
	DB	000H
	DB	018H
	DB	000H
	DB	000H
	DB	018H
	DB	000H
	DB	000H
	DB	018H
	DB	000H
	DB	000H
	DB	018H
	DB	018H
	DB	0F0H
	DB	0FFH
	DB	007H
	DB	020H
	DB	018H
	DB	006H
	DB	0C0H
	DB	018H
	DB	002H
	DB	080H
	DB	019H
	DB	001H
	DB	080H
	DB	098H
	DB	000H
	DB	000H
	DB	058H
	DB	030H
	DB	0FCH
	DB	0BFH
	DB	00FH
	DB	000H
	DB	03CH
	DB	000H
	DB	000H
	DB	05EH
	DB	000H
	DB	000H
	DB	0DBH
	DB	000H
	DB	000H
	DB	099H
	DB	000H
	DB	080H
	DB	018H
	DB	003H
	DB	040H
	DB	018H
	DB	006H
	DB	020H
	DB	018H
	DB	01CH
	DB	018H
	DB	018H
	DB	078H
	DB	004H
	DB	018H
	DB	010H
	DB	000H
	DB	018H
	DB	000H
	DB	000H
	DB	000H
	DB	000H
	DB	000H
	DB	000H
	DB	000H
	DB	000H
	DB	000H
	DB	000H
	DB	000H
	DB	000H
	DB	000H
	DB	000H
	DB	000H
	DB	000H
	DB	000H
	DB	000H
	DB	000H
	DB	000H
	DB	000H
	DB	000H
	DB	000H
	DB	000H
	DB	000H
	DB	000H
	DB	000H
	DB	000H
	DB	000H
	DB	000H
	DB	000H
	DB	000H
	DB	000H
	DB	000H
	DB	000H
	DB	000H
	DB	000H
	DB	000H
	DB	000H
	DB	000H
	DB	000H
	DB	000H
	DB	000H
	DB	000H
	DB	000H
	DB	000H
	DB	000H
	DB	000H
	DB	000H
	DB	000H
	DB	000H
	DB	000H
	DB	078H
	DB	000H
	DB	000H
	DB	078H
	DB	000H
	DB	000H
	DB	030H
	DB	000H
	DB	000H
	DB	020H
	DB	000H
	DB	000H
	DB	010H
	DB	000H
	DB	000H
	DB	008H
	DB	000H
	DB	000H
	DB	000H
	DB	000H
	DB	000H
	DB	000H
	DB	000H
	DB	000H
	DB	000H
	DB	000H
	DB	000H
	DB	000H
	DB	000H
	DB	000H
	DB	080H
	DB	000H
	DB	003H
	DB	080H
	DB	0FFH
	DB	003H
	DB	080H
	DB	000H
	DB	003H
	DB	080H
	DB	000H
	DB	003H
	DB	080H
	DB	0FFH
	DB	003H
	DB	080H
	DB	000H
	DB	003H
	DB	080H
	DB	000H
	DB	003H
	DB	080H
	DB	000H
	DB	003H
	DB	080H
	DB	0FFH
	DB	003H
	DB	000H
	DB	000H
	DB	010H
	DB	000H
	DB	000H
	DB	038H
	DB	0F8H
	DB	0FFH
	DB	007H
	DB	080H
	DB	010H
	DB	000H
	DB	0C0H
	DB	010H
	DB	008H
	DB	040H
	DB	0F0H
	DB	01FH
	DB	040H
	DB	010H
	DB	000H
	DB	0E0H
	DB	010H
	DB	000H
	DB	020H
	DB	013H
	DB	000H
	DB	010H
	DB	01CH
	DB	000H
	DB	008H
	DB	0F0H
	DB	03FH
	DB	004H
	DB	000H
	DB	01FH
	DB	000H
	DB	000H
	DB	000H
	DB	000H
	DB	000H
	DB	000H
	DB	000H
	DB	000H
	DB	000H
	DB	060H
	DB	0B0H
	DB	000H
	DB	020H
	DB	070H
	DB	003H
	DB	020H
	DB	010H
	DB	003H
	DB	020H
	DB	018H
	DB	022H
	DB	020H
	DB	0F9H
	DB	07FH
	DB	0FCH
	DB	008H
	DB	001H
	DB	020H
	DB	00CH
	DB	001H
	DB	020H
	DB	00CH
	DB	001H
	DB	020H
	DB	00BH
	DB	031H
	DB	0E0H
	DB	0FAH
	DB	00FH
	DB	030H
	DB	009H
	DB	001H
	DB	03CH
	DB	009H
	DB	001H
	DB	026H
	DB	008H
	DB	001H
	DB	020H
	DB	008H
	DB	031H
	DB	020H
	DB	0F8H
	DB	00FH
	DB	020H
	DB	008H
	DB	001H
	DB	020H
	DB	008H
	DB	001H
	DB	020H
	DB	008H
	DB	021H
	DB	020H
	DB	008H
	DB	071H
	DB	038H
	DB	0F8H
	DB	00EH
	DB	030H
	DB	008H
	DB	000H
	DB	000H
	DB	000H
	DB	000H
	DB	000H
	DB	000H
	DB	000H
	DB	000H
	DB	000H
	DB	000H
	DB	000H
	DB	018H
	DB	000H
	DB	000H
	DB	030H
	DB	000H
	DB	000H
	DB	030H
	DB	010H
	DB	0F0H
	DB	0FFH
	DB	03FH
	DB	010H
	DB	000H
	DB	000H
	DB	010H
	DB	000H
	DB	000H
	DB	010H
	DB	000H
	DB	000H
	DB	010H
	DB	000H
	DB	000H
	DB	010H
	DB	000H
	DB	000H
	DB	010H
	DB	000H
	DB	000H
	DB	010H
	DB	000H
	DB	000H
	DB	010H
	DB	000H
	DB	000H
	DB	010H
	DB	000H
	DB	000H
	DB	010H
	DB	000H
	DB	000H
	DB	018H
	DB	000H
	DB	000H
	DB	008H
	DB	000H
	DB	000H
	DB	008H
	DB	000H
	DB	000H
	DB	008H
	DB	000H
	DB	000H
	DB	004H
	DB	000H
	DB	000H
	DB	004H
	DB	000H
	DB	000H
	DB	002H
	DB	000H
	DB	000H
	DB	000H
	DB	000H
	DB	000H
	DB	000H
	DB	000H
	DB	000H
	DB	000H
	DB	004H
	DB	000H
	DB	000H
	DB	008H
	DB	000H
	DB	000H
	DB	018H
	DB	000H
	DB	000H
	DB	010H
	DB	010H
	DB	0FCH
	DB	0FFH
	DB	03FH
	DB	080H
	DB	080H
	DB	000H
	DB	000H
	DB	081H
	DB	003H
	DB	000H
	DB	082H
	DB	000H
	DB	000H
	DB	082H
	DB	000H
	DB	000H
	DB	042H
	DB	010H
	DB	0F0H
	DB	0FFH
	DB	03FH
	DB	010H
	DB	000H
	DB	000H
	DB	010H
	DB	000H
	DB	000H
	DB	010H
	DB	000H
	DB	000H
	DB	010H
	DB	000H
	DB	000H
	DB	010H
	DB	000H
	DB	000H
	DB	010H
	DB	000H
	DB	000H
	DB	008H
	DB	000H
	DB	000H
	DB	008H
	DB	000H
	DB	000H
	DB	008H
	DB	000H
	DB	000H
	DB	004H
	DB	000H
	DB	000H
	DB	002H
	DB	000H
	DB	000H
	DB	000H
	DB	000H
	DB	000H
	DB	000H
	DB	000H
	DB	000H
	DB	000H
	DB	000H
	DB	000H
	DB	000H
	DB	000H
	DB	001H
	DB	080H
	DB	0FFH
	DB	001H
	DB	080H
	DB	000H
	DB	001H
	DB	080H
	DB	000H
	DB	001H
	DB	080H
	DB	000H
	DB	001H
	DB	080H
	DB	000H
	DB	001H
	DB	080H
	DB	000H
	DB	001H
	DB	080H
	DB	0FFH
	DB	001H
	DB	080H
	DB	000H
	DB	001H
	DB	000H
	DB	000H
	DB	000H
	DB	000H
	DB	002H
	DB	000H
	DB	0F8H
	DB	0E7H
	DB	01FH
	DB	008H
	DB	062H
	DB	010H
	DB	008H
	DB	062H
	DB	010H
	DB	008H
	DB	062H
	DB	010H
	DB	008H
	DB	062H
	DB	010H
	DB	008H
	DB	062H
	DB	010H
	DB	008H
	DB	062H
	DB	010H
	DB	0F8H
	DB	0E3H
	DB	01FH
	DB	008H
	DB	062H
	DB	010H
	DB	008H
	DB	020H
	DB	000H
	DB	000H
	DB	000H
	DB	000H
	DB	000H
	DB	000H
	DB	000H
	DB	000H
	DB	000H
	DB	000H
	DB	0C0H
	DB	080H
	DB	000H
	DB	040H
	DB	0C0H
	DB	000H
	DB	040H
	DB	0C0H
	DB	000H
	DB	020H
	DB	040H
	DB	000H
	DB	0F8H
	DB	067H
	DB	030H
	DB	008H
	DB	0A2H
	DB	03FH
	DB	008H
	DB	032H
	DB	010H
	DB	008H
	DB	012H
	DB	010H
	DB	008H
	DB	00AH
	DB	010H
	DB	008H
	DB	022H
	DB	010H
	DB	008H
	DB	042H
	DB	010H
	DB	0F8H
	DB	0C3H
	DB	010H
	DB	008H
	DB	082H
	DB	010H
	DB	008H
	DB	082H
	DB	010H
	DB	008H
	DB	002H
	DB	010H
	DB	008H
	DB	002H
	DB	010H
	DB	008H
	DB	002H
	DB	010H
	DB	008H
	DB	002H
	DB	018H
	DB	0F8H
	DB	003H
	DB	018H
	DB	008H
	DB	082H
	DB	00FH
	DB	008H
	DB	000H
	DB	004H
	DB	000H
	DB	000H
	DB	000H
	DB	000H
	DB	000H
	DB	000H
	DB	000H
	DB	000H
	DB	000H
	DB	000H
	DB	018H
	DB	000H
	DB	000H
	DB	008H
	DB	000H
	DB	000H
	DB	00CH
	DB	000H
	DB	000H
	DB	00CH
	DB	018H
	DB	0FCH
	DB	0FFH
	DB	007H
	DB	000H
	DB	014H
	DB	000H
	DB	000H
	DB	026H
	DB	000H
	DB	000H
	DB	022H
	DB	000H
	DB	000H
	DB	043H
	DB	000H
	DB	080H
	DB	087H
	DB	001H
	DB	0C0H
	DB	01CH
	DB	007H
	DB	030H
	DB	030H
	DB	03EH
	DB	00CH
	DB	030H
	DB	010H
	DB	080H
	DB	00CH
	DB	002H
	DB	080H
	DB	019H
	DB	004H
	DB	090H
	DB	030H
	DB	018H
	DB	090H
	DB	020H
	DB	039H
	DB	098H
	DB	000H
	DB	031H
	DB	08CH
	DB	000H
	DB	001H
	DB	08CH
	DB	081H
	DB	003H
	DB	000H
	DB	0FFH
	DB	001H
	DB	000H
	DB	000H
	DB	000H
	DB	000H
	DB	000H
	DB	000H
	DB	000H
	DB	008H
	DB	000H
	DB	000H
	DB	010H
	DB	000H
	DB	000H
	DB	030H
	DB	000H
	DB	010H
	DB	010H
	DB	030H
	DB	0F0H
	DB	0EFH
	DB	00FH
	DB	010H
	DB	00CH
	DB	003H
	DB	010H
	DB	004H
	DB	001H
	DB	010H
	DB	004H
	DB	031H
	DB	0F0H
	DB	0FFH
	DB	00FH
	DB	010H
	DB	004H
	DB	001H
	DB	010H
	DB	004H
	DB	001H
	DB	010H
	DB	0FCH
	DB	001H
	DB	018H
	DB	002H
	DB	000H
	DB	098H
	DB	0FFH
	DB	007H
	DB	008H
	DB	004H
	DB	003H
	DB	008H
	DB	008H
	DB	001H
	DB	008H
	DB	088H
	DB	001H
	DB	008H
	DB	0D0H
	DB	000H
	DB	004H
	DB	060H
	DB	000H
	DB	004H
	DB	0D8H
	DB	001H
	DB	002H
	DB	006H
	DB	03FH
	DB	0E2H
	DB	001H
	DB	01CH
	DB	000H
	DB	000H
	DB	000H
	DB	000H
	DB	000H
	DB	000H
	DB	000H
	DB	000H
	DB	000H
	DB	000H
	DB	018H
	DB	000H
	DB	000H
	DB	038H
	DB	000H
	DB	000H
	DB	00CH
	DB	000H
	DB	000H
	DB	00CH
	DB	000H
	DB	000H
	DB	006H
	DB	000H
	DB	000H
	DB	003H
	DB	000H
	DB	000H
	DB	0C1H
	DB	001H
	DB	080H
	DB	0C0H
	DB	000H
	DB	040H
	DB	060H
	DB	000H
	DB	020H
	DB	060H
	DB	000H
	DB	010H
	DB	030H
	DB	000H
	DB	008H
	DB	018H
	DB	000H
	DB	004H
	DB	088H
	DB	000H
	DB	000H
	DB	004H
	DB	001H
	DB	000H
	DB	002H
	DB	002H
	DB	000H
	DB	001H
	DB	006H
	DB	080H
	DB	000H
	DB	00CH
	DB	0E0H
	DB	0FFH
	DB	01BH
	DB	0E0H
	DB	003H
	DB	018H
	DB	000H
	DB	000H
	DB	018H
	DB	000H
	DB	000H
	DB	000H
	DB	000H
	DB	000H
	DB	000H
	DB	000H
	DB	000H
	DB	000H
	DB	000H
	DB	000H
	DB	000H
	DB	000H
	DB	000H
	DB	000H
	DB	000H
	DB	000H
	DB	000H
	DB	0E0H
	DB	003H
	DB	000H
	DB	010H
	DB	006H
	DB	000H
	DB	010H
	DB	004H
	DB	000H
	DB	018H
	DB	004H
	DB	000H
	DB	010H
	DB	006H
	DB	000H
	DB	000H
	DB	002H
	DB	000H
	DB	000H
	DB	003H
	DB	000H
	DB	080H
	DB	001H
	DB	000H
	DB	080H
	DB	000H
	DB	000H
	DB	080H
	DB	000H
	DB	000H
	DB	000H
	DB	000H
	DB	000H
	DB	000H
	DB	000H
	DB	000H
	DB	080H
	DB	000H
	DB	000H
	DB	0C0H
	DB	001H
	DB	000H
	DB	0C0H
	DB	001H
	DB	000H
	DB	0C0H
	DB	000H
	DB	000H
	DB	000H
	DB	000H
	DB	000H
	DB	000H
	DB	000H
	DB	000H
	DB	000H
	DB	000H
	DB	000H
	DB	000H
	DB	000H
	DB	000H

hz16:
	DB	080H
	DB	000H
	DB	080H
	DB	000H
	DB	0FCH
	DB	01FH
	DB	040H
	DB	000H
	DB	040H
	DB	000H
	DB	0FFH
	DB	07FH
	DB	020H
	DB	000H
	DB	010H
	DB	004H
	DB	0F0H
	DB	00FH
	DB	000H
	DB	004H
	DB	000H
	DB	002H
	DB	040H
	DB	001H
	DB	080H
	DB	000H
	DB	000H
	DB	001H
	DB	000H
	DB	002H
	DB	000H
	DB	000H
	DB	020H
	DB	002H
	DB	020H
	DB	002H
	DB	020H
	DB	002H
	DB	020H
	DB	022H
	DB	022H
	DB	062H
	DB	024H
	DB	032H
	DB	024H
	DB	012H
	DB	028H
	DB	00AH
	DB	038H
	DB	00AH
	DB	028H
	DB	006H
	DB	020H
	DB	002H
	DB	020H
	DB	002H
	DB	020H
	DB	022H
	DB	0FFH
	DB	07FH
	DB	000H
	DB	000H
	DB	000H
	DB	000H
	DB	008H
	DB	004H
	DB	008H
	DB	004H
	DB	008H
	DB	004H
	DB	0BFH
	DB	07FH
	DB	008H
	DB	004H
	DB	028H
	DB	004H
	DB	098H
	DB	03FH
	DB	08CH
	DB	010H
	DB	00BH
	DB	011H
	DB	008H
	DB	009H
	DB	008H
	DB	006H
	DB	008H
	DB	006H
	DB	008H
	DB	009H
	DB	088H
	DB	070H
	DB	06AH
	DB	020H
	DB	004H
	DB	000H
	DB	080H
	DB	000H
	DB	080H
	DB	004H
	DB	080H
	DB	008H
	DB	080H
	DB	000H
	DB	0FFH
	DB	07FH
	DB	080H
	DB	000H
	DB	0C0H
	DB	001H
	DB	0A0H
	DB	002H
	DB	0A0H
	DB	004H
	DB	090H
	DB	008H
	DB	088H
	DB	018H
	DB	084H
	DB	070H
	DB	083H
	DB	020H
	DB	080H
	DB	000H
	DB	080H
	DB	000H
	DB	000H
	DB	000H
	DB	002H
	DB	002H
	DB	004H
	DB	002H
	DB	00CH
	DB	005H
	DB	004H
	DB	009H
	DB	080H
	DB	010H
	DB	040H
	DB	060H
	DB	0A7H
	DB	020H
	DB	084H
	DB	008H
	DB	084H
	DB	01CH
	DB	084H
	DB	003H
	DB	084H
	DB	000H
	DB	0A4H
	DB	000H
	DB	094H
	DB	020H
	DB	08CH
	DB	020H
	DB	004H
	DB	03FH
	DB	000H
	DB	000H
	DB	000H
	DB	000H
	DB	088H
	DB	03FH
	DB	008H
	DB	000H
	DB	008H
	DB	000H
	DB	008H
	DB	000H
	DB	03FH
	DB	000H
	DB	0C8H
	DB	07FH
	DB	008H
	DB	002H
	DB	008H
	DB	006H
	DB	008H
	DB	001H
	DB	038H
	DB	011H
	DB	08CH
	DB	020H
	DB	043H
	DB	07EH
	DB	0E0H
	DB	063H
	DB	040H
	DB	020H
	DB	000H
	DB	000H

Font8x16:
	DB	000H
	DB	000H
	DB	000H
	DB	000H
	DB	000H
	DB	000H
	DB	000H
	DB	000H
	DB	000H
	DB	000H
	DB	000H
	DB	000H
	DB	000H
	DB	000H
	DB	000H
	DB	000H
	DB	000H
	DB	000H
	DB	018H
	DB	03CH
	DB	03CH
	DB	03CH
	DB	018H
	DB	018H
	DB	018H
	DB	000H
	DB	018H
	DB	018H
	DB	000H
	DB	000H
	DB	000H
	DB	000H
	DB	000H
	DB	063H
	DB	063H
	DB	063H
	DB	022H
	DB	000H
	DB	000H
	DB	000H
	DB	000H
	DB	000H
	DB	000H
	DB	000H
	DB	000H
	DB	000H
	DB	000H
	DB	000H
	DB	000H
	DB	000H
	DB	000H
	DB	036H
	DB	036H
	DB	07FH
	DB	036H
	DB	036H
	DB	036H
	DB	07FH
	DB	036H
	DB	036H
	DB	000H
	DB	000H
	DB	000H
	DB	000H
	DB	00CH
	DB	00CH
	DB	03EH
	DB	063H
	DB	061H
	DB	060H
	DB	03EH
	DB	003H
	DB	003H
	DB	043H
	DB	063H
	DB	03EH
	DB	00CH
	DB	00CH
	DB	000H
	DB	000H
	DB	000H
	DB	000H
	DB	000H
	DB	000H
	DB	000H
	DB	061H
	DB	063H
	DB	006H
	DB	00CH
	DB	018H
	DB	033H
	DB	063H
	DB	000H
	DB	000H
	DB	000H
	DB	000H
	DB	000H
	DB	000H
	DB	000H
	DB	01CH
	DB	036H
	DB	036H
	DB	01CH
	DB	03BH
	DB	06EH
	DB	066H
	DB	066H
	DB	03BH
	DB	000H
	DB	000H
	DB	000H
	DB	000H
	DB	000H
	DB	030H
	DB	030H
	DB	030H
	DB	060H
	DB	000H
	DB	000H
	DB	000H
	DB	000H
	DB	000H
	DB	000H
	DB	000H
	DB	000H
	DB	000H
	DB	000H
	DB	000H
	DB	000H
	DB	000H
	DB	00CH
	DB	018H
	DB	018H
	DB	030H
	DB	030H
	DB	030H
	DB	030H
	DB	018H
	DB	018H
	DB	00CH
	DB	000H
	DB	000H
	DB	000H
	DB	000H
	DB	000H
	DB	000H
	DB	018H
	DB	00CH
	DB	00CH
	DB	006H
	DB	006H
	DB	006H
	DB	006H
	DB	00CH
	DB	00CH
	DB	018H
	DB	000H
	DB	000H
	DB	000H
	DB	000H
	DB	000H
	DB	000H
	DB	000H
	DB	000H
	DB	042H
	DB	066H
	DB	03CH
	DB	0FFH
	DB	03CH
	DB	066H
	DB	042H
	DB	000H
	DB	000H
	DB	000H
	DB	000H
	DB	000H
	DB	000H
	DB	000H
	DB	000H
	DB	000H
	DB	018H
	DB	018H
	DB	018H
	DB	0FFH
	DB	018H
	DB	018H
	DB	018H
	DB	000H
	DB	000H
	DB	000H
	DB	000H
	DB	000H
	DB	000H
	DB	000H
	DB	000H
	DB	000H
	DB	000H
	DB	000H
	DB	000H
	DB	000H
	DB	000H
	DB	000H
	DB	018H
	DB	018H
	DB	018H
	DB	030H
	DB	000H
	DB	000H
	DB	000H
	DB	000H
	DB	000H
	DB	000H
	DB	000H
	DB	000H
	DB	000H
	DB	0FFH
	DB	000H
	DB	000H
	DB	000H
	DB	000H
	DB	000H
	DB	000H
	DB	000H
	DB	000H
	DB	000H
	DB	000H
	DB	000H
	DB	000H
	DB	000H
	DB	000H
	DB	000H
	DB	000H
	DB	000H
	DB	000H
	DB	018H
	DB	018H
	DB	000H
	DB	000H
	DB	000H
	DB	000H
	DB	000H
	DB	000H
	DB	001H
	DB	003H
	DB	007H
	DB	00EH
	DB	01CH
	DB	038H
	DB	070H
	DB	0E0H
	DB	0C0H
	DB	080H
	DB	000H
	DB	000H
	DB	000H
	DB	000H
	DB	000H
	DB	000H
	DB	03EH
	DB	063H
	DB	063H
	DB	063H
	DB	06BH
	DB	06BH
	DB	063H
	DB	063H
	DB	063H
	DB	03EH
	DB	000H
	DB	000H
	DB	000H
	DB	000H
	DB	000H
	DB	000H
	DB	00CH
	DB	01CH
	DB	03CH
	DB	00CH
	DB	00CH
	DB	00CH
	DB	00CH
	DB	00CH
	DB	00CH
	DB	03FH
	DB	000H
	DB	000H
	DB	000H
	DB	000H
	DB	000H
	DB	000H
	DB	03EH
	DB	063H
	DB	003H
	DB	006H
	DB	00CH
	DB	018H
	DB	030H
	DB	061H
	DB	063H
	DB	07FH
	DB	000H
	DB	000H
	DB	000H
	DB	000H
	DB	000H
	DB	000H
	DB	03EH
	DB	063H
	DB	003H
	DB	003H
	DB	01EH
	DB	003H
	DB	003H
	DB	003H
	DB	063H
	DB	03EH
	DB	000H
	DB	000H
	DB	000H
	DB	000H
	DB	000H
	DB	000H
	DB	006H
	DB	00EH
	DB	01EH
	DB	036H
	DB	066H
	DB	066H
	DB	07FH
	DB	006H
	DB	006H
	DB	00FH
	DB	000H
	DB	000H
	DB	000H
	DB	000H
	DB	000H
	DB	000H
	DB	07FH
	DB	060H
	DB	060H
	DB	060H
	DB	07EH
	DB	003H
	DB	003H
	DB	063H
	DB	073H
	DB	03EH
	DB	000H
	DB	000H
	DB	000H
	DB	000H
	DB	000H
	DB	000H
	DB	01CH
	DB	030H
	DB	060H
	DB	060H
	DB	07EH
	DB	063H
	DB	063H
	DB	063H
	DB	063H
	DB	03EH
	DB	000H
	DB	000H
	DB	000H
	DB	000H
	DB	000H
	DB	000H
	DB	07FH
	DB	063H
	DB	003H
	DB	006H
	DB	006H
	DB	00CH
	DB	00CH
	DB	018H
	DB	018H
	DB	018H
	DB	000H
	DB	000H
	DB	000H
	DB	000H
	DB	000H
	DB	000H
	DB	03EH
	DB	063H
	DB	063H
	DB	063H
	DB	03EH
	DB	063H
	DB	063H
	DB	063H
	DB	063H
	DB	03EH
	DB	000H
	DB	000H
	DB	000H
	DB	000H
	DB	000H
	DB	000H
	DB	03EH
	DB	063H
	DB	063H
	DB	063H
	DB	063H
	DB	03FH
	DB	003H
	DB	003H
	DB	006H
	DB	03CH
	DB	000H
	DB	000H
	DB	000H
	DB	000H
	DB	000H
	DB	000H
	DB	000H
	DB	000H
	DB	000H
	DB	018H
	DB	018H
	DB	000H
	DB	000H
	DB	000H
	DB	018H
	DB	018H
	DB	000H
	DB	000H
	DB	000H
	DB	000H
	DB	000H
	DB	000H
	DB	000H
	DB	000H
	DB	000H
	DB	018H
	DB	018H
	DB	000H
	DB	000H
	DB	000H
	DB	018H
	DB	018H
	DB	018H
	DB	030H
	DB	000H
	DB	000H
	DB	000H
	DB	000H
	DB	000H
	DB	006H
	DB	00CH
	DB	018H
	DB	030H
	DB	060H
	DB	030H
	DB	018H
	DB	00CH
	DB	006H
	DB	000H
	DB	000H
	DB	000H
	DB	000H
	DB	000H
	DB	000H
	DB	000H
	DB	000H
	DB	000H
	DB	000H
	DB	07EH
	DB	000H
	DB	000H
	DB	07EH
	DB	000H
	DB	000H
	DB	000H
	DB	000H
	DB	000H
	DB	000H
	DB	000H
	DB	000H
	DB	000H
	DB	060H
	DB	030H
	DB	018H
	DB	00CH
	DB	006H
	DB	00CH
	DB	018H
	DB	030H
	DB	060H
	DB	000H
	DB	000H
	DB	000H
	DB	000H
	DB	000H
	DB	000H
	DB	03EH
	DB	063H
	DB	063H
	DB	006H
	DB	00CH
	DB	00CH
	DB	00CH
	DB	000H
	DB	00CH
	DB	00CH
	DB	000H
	DB	000H
	DB	000H
	DB	000H
	DB	000H
	DB	000H
	DB	03EH
	DB	063H
	DB	063H
	DB	06FH
	DB	06BH
	DB	06BH
	DB	06EH
	DB	060H
	DB	060H
	DB	03EH
	DB	000H
	DB	000H
	DB	000H
	DB	000H
	DB	000H
	DB	000H
	DB	008H
	DB	01CH
	DB	036H
	DB	063H
	DB	063H
	DB	063H
	DB	07FH
	DB	063H
	DB	063H
	DB	063H
	DB	000H
	DB	000H
	DB	000H
	DB	000H
	DB	000H
	DB	000H
	DB	07EH
	DB	033H
	DB	033H
	DB	033H
	DB	03EH
	DB	033H
	DB	033H
	DB	033H
	DB	033H
	DB	07EH
	DB	000H
	DB	000H
	DB	000H
	DB	000H
	DB	000H
	DB	000H
	DB	01EH
	DB	033H
	DB	061H
	DB	060H
	DB	060H
	DB	060H
	DB	060H
	DB	061H
	DB	033H
	DB	01EH
	DB	000H
	DB	000H
	DB	000H
	DB	000H
	DB	000H
	DB	000H
	DB	07CH
	DB	036H
	DB	033H
	DB	033H
	DB	033H
	DB	033H
	DB	033H
	DB	033H
	DB	036H
	DB	07CH
	DB	000H
	DB	000H
	DB	000H
	DB	000H
	DB	000H
	DB	000H
	DB	07FH
	DB	033H
	DB	031H
	DB	034H
	DB	03CH
	DB	034H
	DB	030H
	DB	031H
	DB	033H
	DB	07FH
	DB	000H
	DB	000H
	DB	000H
	DB	000H
	DB	000H
	DB	000H
	DB	07FH
	DB	033H
	DB	031H
	DB	034H
	DB	03CH
	DB	034H
	DB	030H
	DB	030H
	DB	030H
	DB	078H
	DB	000H
	DB	000H
	DB	000H
	DB	000H
	DB	000H
	DB	000H
	DB	01EH
	DB	033H
	DB	061H
	DB	060H
	DB	060H
	DB	06FH
	DB	063H
	DB	063H
	DB	037H
	DB	01DH
	DB	000H
	DB	000H
	DB	000H
	DB	000H
	DB	000H
	DB	000H
	DB	063H
	DB	063H
	DB	063H
	DB	063H
	DB	07FH
	DB	063H
	DB	063H
	DB	063H
	DB	063H
	DB	063H
	DB	000H
	DB	000H
	DB	000H
	DB	000H
	DB	000H
	DB	000H
	DB	03CH
	DB	018H
	DB	018H
	DB	018H
	DB	018H
	DB	018H
	DB	018H
	DB	018H
	DB	018H
	DB	03CH
	DB	000H
	DB	000H
	DB	000H
	DB	000H
	DB	000H
	DB	000H
	DB	00FH
	DB	006H
	DB	006H
	DB	006H
	DB	006H
	DB	006H
	DB	006H
	DB	066H
	DB	066H
	DB	03CH
	DB	000H
	DB	000H
	DB	000H
	DB	000H
	DB	000H
	DB	000H
	DB	073H
	DB	033H
	DB	036H
	DB	036H
	DB	03CH
	DB	036H
	DB	036H
	DB	033H
	DB	033H
	DB	073H
	DB	000H
	DB	000H
	DB	000H
	DB	000H
	DB	000H
	DB	000H
	DB	078H
	DB	030H
	DB	030H
	DB	030H
	DB	030H
	DB	030H
	DB	030H
	DB	031H
	DB	033H
	DB	07FH
	DB	000H
	DB	000H
	DB	000H
	DB	000H
	DB	000H
	DB	000H
	DB	063H
	DB	077H
	DB	07FH
	DB	06BH
	DB	063H
	DB	063H
	DB	063H
	DB	063H
	DB	063H
	DB	063H
	DB	000H
	DB	000H
	DB	000H
	DB	000H
	DB	000H
	DB	000H
	DB	063H
	DB	063H
	DB	073H
	DB	07BH
	DB	07FH
	DB	06FH
	DB	067H
	DB	063H
	DB	063H
	DB	063H
	DB	000H
	DB	000H
	DB	000H
	DB	000H
	DB	000H
	DB	000H
	DB	01CH
	DB	036H
	DB	063H
	DB	063H
	DB	063H
	DB	063H
	DB	063H
	DB	063H
	DB	036H
	DB	01CH
	DB	000H
	DB	000H
	DB	000H
	DB	000H
	DB	000H
	DB	000H
	DB	07EH
	DB	033H
	DB	033H
	DB	033H
	DB	03EH
	DB	030H
	DB	030H
	DB	030H
	DB	030H
	DB	078H
	DB	000H
	DB	000H
	DB	000H
	DB	000H
	DB	000H
	DB	000H
	DB	03EH
	DB	063H
	DB	063H
	DB	063H
	DB	063H
	DB	063H
	DB	063H
	DB	06BH
	DB	06FH
	DB	03EH
	DB	006H
	DB	007H
	DB	000H
	DB	000H
	DB	000H
	DB	000H
	DB	07EH
	DB	033H
	DB	033H
	DB	033H
	DB	03EH
	DB	036H
	DB	036H
	DB	033H
	DB	033H
	DB	073H
	DB	000H
	DB	000H
	DB	000H
	DB	000H
	DB	000H
	DB	000H
	DB	03EH
	DB	063H
	DB	063H
	DB	030H
	DB	01CH
	DB	006H
	DB	003H
	DB	063H
	DB	063H
	DB	03EH
	DB	000H
	DB	000H
	DB	000H
	DB	000H
	DB	000H
	DB	000H
	DB	0FFH
	DB	0DBH
	DB	099H
	DB	018H
	DB	018H
	DB	018H
	DB	018H
	DB	018H
	DB	018H
	DB	03CH
	DB	000H
	DB	000H
	DB	000H
	DB	000H
	DB	000H
	DB	000H
	DB	063H
	DB	063H
	DB	063H
	DB	063H
	DB	063H
	DB	063H
	DB	063H
	DB	063H
	DB	063H
	DB	03EH
	DB	000H
	DB	000H
	DB	000H
	DB	000H
	DB	000H
	DB	000H
	DB	063H
	DB	063H
	DB	063H
	DB	063H
	DB	063H
	DB	063H
	DB	063H
	DB	036H
	DB	01CH
	DB	008H
	DB	000H
	DB	000H
	DB	000H
	DB	000H
	DB	000H
	DB	000H
	DB	063H
	DB	063H
	DB	063H
	DB	063H
	DB	063H
	DB	06BH
	DB	06BH
	DB	07FH
	DB	036H
	DB	036H
	DB	000H
	DB	000H
	DB	000H
	DB	000H
	DB	000H
	DB	000H
	DB	0C3H
	DB	0C3H
	DB	066H
	DB	03CH
	DB	018H
	DB	018H
	DB	03CH
	DB	066H
	DB	0C3H
	DB	0C3H
	DB	000H
	DB	000H
	DB	000H
	DB	000H
	DB	000H
	DB	000H
	DB	0C3H
	DB	0C3H
	DB	0C3H
	DB	066H
	DB	03CH
	DB	018H
	DB	018H
	DB	018H
	DB	018H
	DB	03CH
	DB	000H
	DB	000H
	DB	000H
	DB	000H
	DB	000H
	DB	000H
	DB	07FH
	DB	063H
	DB	043H
	DB	006H
	DB	00CH
	DB	018H
	DB	030H
	DB	061H
	DB	063H
	DB	07FH
	DB	000H
	DB	000H
	DB	000H
	DB	000H
	DB	000H
	DB	000H
	DB	03CH
	DB	030H
	DB	030H
	DB	030H
	DB	030H
	DB	030H
	DB	030H
	DB	030H
	DB	030H
	DB	03CH
	DB	000H
	DB	000H
	DB	000H
	DB	000H
	DB	000H
	DB	000H
	DB	080H
	DB	0C0H
	DB	0E0H
	DB	070H
	DB	038H
	DB	01CH
	DB	00EH
	DB	007H
	DB	003H
	DB	001H
	DB	000H
	DB	000H
	DB	000H
	DB	000H
	DB	000H
	DB	000H
	DB	03CH
	DB	00CH
	DB	00CH
	DB	00CH
	DB	00CH
	DB	00CH
	DB	00CH
	DB	00CH
	DB	00CH
	DB	03CH
	DB	000H
	DB	000H
	DB	000H
	DB	000H
	DB	008H
	DB	01CH
	DB	036H
	DB	063H
	DB	000H
	DB	000H
	DB	000H
	DB	000H
	DB	000H
	DB	000H
	DB	000H
	DB	000H
	DB	000H
	DB	000H
	DB	000H
	DB	000H
	DB	000H
	DB	000H
	DB	000H
	DB	000H
	DB	000H
	DB	000H
	DB	000H
	DB	000H
	DB	000H
	DB	000H
	DB	000H
	DB	000H
	DB	0FFH
	DB	000H
	DB	000H
	DB	000H
	DB	018H
	DB	018H
	DB	00CH
	DB	000H
	DB	000H
	DB	000H
	DB	000H
	DB	000H
	DB	000H
	DB	000H
	DB	000H
	DB	000H
	DB	000H
	DB	000H
	DB	000H
	DB	000H
	DB	000H
	DB	000H
	DB	000H
	DB	000H
	DB	000H
	DB	03CH
	DB	046H
	DB	006H
	DB	03EH
	DB	066H
	DB	066H
	DB	03BH
	DB	000H
	DB	000H
	DB	000H
	DB	000H
	DB	000H
	DB	000H
	DB	070H
	DB	030H
	DB	030H
	DB	03CH
	DB	036H
	DB	033H
	DB	033H
	DB	033H
	DB	033H
	DB	06EH
	DB	000H
	DB	000H
	DB	000H
	DB	000H
	DB	000H
	DB	000H
	DB	000H
	DB	000H
	DB	000H
	DB	03EH
	DB	063H
	DB	060H
	DB	060H
	DB	060H
	DB	063H
	DB	03EH
	DB	000H
	DB	000H
	DB	000H
	DB	000H
	DB	000H
	DB	000H
	DB	00EH
	DB	006H
	DB	006H
	DB	01EH
	DB	036H
	DB	066H
	DB	066H
	DB	066H
	DB	066H
	DB	03BH
	DB	000H
	DB	000H
	DB	000H
	DB	000H
	DB	000H
	DB	000H
	DB	000H
	DB	000H
	DB	000H
	DB	03EH
	DB	063H
	DB	063H
	DB	07EH
	DB	060H
	DB	063H
	DB	03EH
	DB	000H
	DB	000H
	DB	000H
	DB	000H
	DB	000H
	DB	000H
	DB	01CH
	DB	036H
	DB	032H
	DB	030H
	DB	07CH
	DB	030H
	DB	030H
	DB	030H
	DB	030H
	DB	078H
	DB	000H
	DB	000H
	DB	000H
	DB	000H
	DB	000H
	DB	000H
	DB	000H
	DB	000H
	DB	000H
	DB	03BH
	DB	066H
	DB	066H
	DB	066H
	DB	066H
	DB	03EH
	DB	006H
	DB	066H
	DB	03CH
	DB	000H
	DB	000H
	DB	000H
	DB	000H
	DB	070H
	DB	030H
	DB	030H
	DB	036H
	DB	03BH
	DB	033H
	DB	033H
	DB	033H
	DB	033H
	DB	073H
	DB	000H
	DB	000H
	DB	000H
	DB	000H
	DB	000H
	DB	000H
	DB	00CH
	DB	00CH
	DB	000H
	DB	01CH
	DB	00CH
	DB	00CH
	DB	00CH
	DB	00CH
	DB	00CH
	DB	01EH
	DB	000H
	DB	000H
	DB	000H
	DB	000H
	DB	000H
	DB	000H
	DB	006H
	DB	006H
	DB	000H
	DB	00EH
	DB	006H
	DB	006H
	DB	006H
	DB	006H
	DB	006H
	DB	066H
	DB	066H
	DB	03CH
	DB	000H
	DB	000H
	DB	000H
	DB	000H
	DB	070H
	DB	030H
	DB	030H
	DB	033H
	DB	033H
	DB	036H
	DB	03CH
	DB	036H
	DB	033H
	DB	073H
	DB	000H
	DB	000H
	DB	000H
	DB	000H
	DB	000H
	DB	000H
	DB	01CH
	DB	00CH
	DB	00CH
	DB	00CH
	DB	00CH
	DB	00CH
	DB	00CH
	DB	00CH
	DB	00CH
	DB	01EH
	DB	000H
	DB	000H
	DB	000H
	DB	000H
	DB	000H
	DB	000H
	DB	000H
	DB	000H
	DB	000H
	DB	06EH
	DB	07FH
	DB	06BH
	DB	06BH
	DB	06BH
	DB	06BH
	DB	06BH
	DB	000H
	DB	000H
	DB	000H
	DB	000H
	DB	000H
	DB	000H
	DB	000H
	DB	000H
	DB	000H
	DB	06EH
	DB	033H
	DB	033H
	DB	033H
	DB	033H
	DB	033H
	DB	033H
	DB	000H
	DB	000H
	DB	000H
	DB	000H
	DB	000H
	DB	000H
	DB	000H
	DB	000H
	DB	000H
	DB	03EH
	DB	063H
	DB	063H
	DB	063H
	DB	063H
	DB	063H
	DB	03EH
	DB	000H
	DB	000H
	DB	000H
	DB	000H
	DB	000H
	DB	000H
	DB	000H
	DB	000H
	DB	000H
	DB	06EH
	DB	033H
	DB	033H
	DB	033H
	DB	033H
	DB	03EH
	DB	030H
	DB	030H
	DB	078H
	DB	000H
	DB	000H
	DB	000H
	DB	000H
	DB	000H
	DB	000H
	DB	000H
	DB	03BH
	DB	066H
	DB	066H
	DB	066H
	DB	066H
	DB	03EH
	DB	006H
	DB	006H
	DB	00FH
	DB	000H
	DB	000H
	DB	000H
	DB	000H
	DB	000H
	DB	000H
	DB	000H
	DB	06EH
	DB	03BH
	DB	033H
	DB	030H
	DB	030H
	DB	030H
	DB	078H
	DB	000H
	DB	000H
	DB	000H
	DB	000H
	DB	000H
	DB	000H
	DB	000H
	DB	000H
	DB	000H
	DB	03EH
	DB	063H
	DB	038H
	DB	00EH
	DB	003H
	DB	063H
	DB	03EH
	DB	000H
	DB	000H
	DB	000H
	DB	000H
	DB	000H
	DB	000H
	DB	008H
	DB	018H
	DB	018H
	DB	07EH
	DB	018H
	DB	018H
	DB	018H
	DB	018H
	DB	01BH
	DB	00EH
	DB	000H
	DB	000H
	DB	000H
	DB	000H
	DB	000H
	DB	000H
	DB	000H
	DB	000H
	DB	000H
	DB	066H
	DB	066H
	DB	066H
	DB	066H
	DB	066H
	DB	066H
	DB	03BH
	DB	000H
	DB	000H
	DB	000H
	DB	000H
	DB	000H
	DB	000H
	DB	000H
	DB	000H
	DB	000H
	DB	063H
	DB	063H
	DB	036H
	DB	036H
	DB	01CH
	DB	01CH
	DB	008H
	DB	000H
	DB	000H
	DB	000H
	DB	000H
	DB	000H
	DB	000H
	DB	000H
	DB	000H
	DB	000H
	DB	063H
	DB	063H
	DB	063H
	DB	06BH
	DB	06BH
	DB	07FH
	DB	036H
	DB	000H
	DB	000H
	DB	000H
	DB	000H
	DB	000H
	DB	000H
	DB	000H
	DB	000H
	DB	000H
	DB	063H
	DB	036H
	DB	01CH
	DB	01CH
	DB	01CH
	DB	036H
	DB	063H
	DB	000H
	DB	000H
	DB	000H
	DB	000H
	DB	000H
	DB	000H
	DB	000H
	DB	000H
	DB	000H
	DB	063H
	DB	063H
	DB	063H
	DB	063H
	DB	063H
	DB	03FH
	DB	003H
	DB	006H
	DB	03CH
	DB	000H
	DB	000H
	DB	000H
	DB	000H
	DB	000H
	DB	000H
	DB	000H
	DB	07FH
	DB	066H
	DB	00CH
	DB	018H
	DB	030H
	DB	063H
	DB	07FH
	DB	000H
	DB	000H
	DB	000H
	DB	000H
	DB	000H
	DB	000H
	DB	00EH
	DB	018H
	DB	018H
	DB	018H
	DB	070H
	DB	018H
	DB	018H
	DB	018H
	DB	018H
	DB	00EH
	DB	000H
	DB	000H
	DB	000H
	DB	000H
	DB	000H
	DB	000H
	DB	018H
	DB	018H
	DB	018H
	DB	018H
	DB	018H
	DB	000H
	DB	018H
	DB	018H
	DB	018H
	DB	018H
	DB	018H
	DB	000H
	DB	000H
	DB	000H
	DB	000H
	DB	000H
	DB	070H
	DB	018H
	DB	018H
	DB	018H
	DB	00EH
	DB	018H
	DB	018H
	DB	018H
	DB	018H
	DB	070H
	DB	000H
	DB	000H
	DB	000H
	DB	000H
	DB	000H
	DB	000H
	DB	03BH
	DB	06EH
	DB	000H
	DB	000H
	DB	000H
	DB	000H
	DB	000H
	DB	000H
	DB	000H
	DB	000H
	DB	000H
	DB	000H
	DB	000H
	DB	000H
	DB	000H
	DB	070H
	DB	0D8H
	DB	0D8H
	DB	070H
	DB	000H
	DB	000H
	DB	000H
	DB	000H
	DB	000H
	DB	000H
	DB	000H
	DB	000H
	DB	000H
	DB	000H
	DB	000H

Font16x24:
	DB	000H
	DB	000H
	DB	000H
	DB	000H
	DB	000H
	DB	000H
	DB	000H
	DB	000H
	DB	000H
	DB	000H
	DB	000H
	DB	000H
	DB	000H
	DB	000H
	DB	000H
	DB	000H
	DB	000H
	DB	000H
	DB	000H
	DB	000H
	DB	000H
	DB	000H
	DB	000H
	DB	000H
	DB	000H
	DB	000H
	DB	000H
	DB	000H
	DB	000H
	DB	000H
	DB	000H
	DB	000H
	DB	000H
	DB	000H
	DB	000H
	DB	000H
	DB	000H
	DB	000H
	DB	000H
	DB	000H
	DB	000H
	DB	000H
	DB	000H
	DB	000H
	DB	000H
	DB	000H
	DB	000H
	DB	000H
	DB	000H
	DB	000H
	DB	000H
	DB	000H
	DB	000H
	DB	000H
	DB	000H
	DB	000H
	DB	007H
	DB	000H
	DB	007H
	DB	000H
	DB	007H
	DB	000H
	DB	007H
	DB	000H
	DB	007H
	DB	000H
	DB	002H
	DB	000H
	DB	002H
	DB	000H
	DB	002H
	DB	000H
	DB	002H
	DB	000H
	DB	002H
	DB	000H
	DB	002H
	DB	000H
	DB	000H
	DB	000H
	DB	000H
	DB	000H
	DB	000H
	DB	000H
	DB	007H
	DB	000H
	DB	007H
	DB	000H
	DB	007H
	DB	000H
	DB	000H
	DB	000H
	DB	000H
	DB	000H
	DB	000H
	DB	000H
	DB	000H
	DB	000H
	DB	000H
	DB	000H
	DB	006H
	DB	060H
	DB	006H
	DB	060H
	DB	00CH
	DB	0C0H
	DB	019H
	DB	080H
	DB	011H
	DB	000H
	DB	022H
	DB	000H
	DB	000H
	DB	000H
	DB	000H
	DB	000H
	DB	000H
	DB	000H
	DB	000H
	DB	000H
	DB	000H
	DB	000H
	DB	000H
	DB	000H
	DB	000H
	DB	000H
	DB	000H
	DB	000H
	DB	000H
	DB	000H
	DB	000H
	DB	000H
	DB	000H
	DB	000H
	DB	000H
	DB	000H
	DB	000H
	DB	000H
	DB	000H
	DB	000H
	DB	000H
	DB	000H
	DB	000H
	DB	000H
	DB	000H
	DB	000H
	DB	000H
	DB	000H
	DB	000H
	DB	000H
	DB	000H
	DB	000H
	DB	000H
	DB	000H
	DB	010H
	DB	040H
	DB	010H
	DB	040H
	DB	010H
	DB	040H
	DB	010H
	DB	040H
	DB	07FH
	DB	0E0H
	DB	07FH
	DB	0E0H
	DB	010H
	DB	040H
	DB	010H
	DB	040H
	DB	020H
	DB	080H
	DB	020H
	DB	080H
	DB	07FH
	DB	0E0H
	DB	07FH
	DB	0E0H
	DB	020H
	DB	080H
	DB	020H
	DB	080H
	DB	020H
	DB	080H
	DB	020H
	DB	080H
	DB	000H
	DB	000H
	DB	000H
	DB	000H
	DB	000H
	DB	000H
	DB	000H
	DB	000H
	DB	000H
	DB	000H
	DB	000H
	DB	000H
	DB	002H
	DB	000H
	DB	002H
	DB	000H
	DB	00FH
	DB	080H
	DB	01AH
	DB	0C0H
	DB	032H
	DB	0C0H
	DB	032H
	DB	0C0H
	DB	032H
	DB	000H
	DB	01AH
	DB	000H
	DB	00EH
	DB	000H
	DB	007H
	DB	000H
	DB	003H
	DB	080H
	DB	003H
	DB	080H
	DB	002H
	DB	0C0H
	DB	032H
	DB	0C0H
	DB	032H
	DB	0C0H
	DB	032H
	DB	0C0H
	DB	012H
	DB	080H
	DB	00FH
	DB	000H
	DB	002H
	DB	000H
	DB	002H
	DB	000H
	DB	000H
	DB	000H
	DB	000H
	DB	000H
	DB	000H
	DB	000H
	DB	000H
	DB	000H
	DB	000H
	DB	000H
	DB	000H
	DB	000H
	DB	070H
	DB	0C0H
	DB	050H
	DB	080H
	DB	088H
	DB	080H
	DB	089H
	DB	000H
	DB	089H
	DB	000H
	DB	08BH
	DB	000H
	DB	08AH
	DB	000H
	DB	05FH
	DB	0C0H
	DB	075H
	DB	040H
	DB	006H
	DB	020H
	DB	00AH
	DB	020H
	DB	00AH
	DB	020H
	DB	01AH
	DB	020H
	DB	012H
	DB	020H
	DB	011H
	DB	040H
	DB	021H
	DB	0C0H
	DB	000H
	DB	000H
	DB	000H
	DB	000H
	DB	000H
	DB	000H
	DB	000H
	DB	000H
	DB	000H
	DB	000H
	DB	000H
	DB	000H
	DB	000H
	DB	000H
	DB	000H
	DB	000H
	DB	01CH
	DB	000H
	DB	026H
	DB	000H
	DB	026H
	DB	000H
	DB	026H
	DB	000H
	DB	026H
	DB	000H
	DB	025H
	DB	0C0H
	DB	038H
	DB	080H
	DB	030H
	DB	080H
	DB	058H
	DB	080H
	DB	049H
	DB	000H
	DB	0CDH
	DB	000H
	DB	0C7H
	DB	000H
	DB	0C6H
	DB	000H
	DB	0C3H
	DB	000H
	DB	065H
	DB	020H
	DB	038H
	DB	0C0H
	DB	000H
	DB	000H
	DB	000H
	DB	000H
	DB	000H
	DB	000H
	DB	000H
	DB	000H
	DB	000H
	DB	000H
	DB	030H
	DB	000H
	DB	038H
	DB	000H
	DB	008H
	DB	000H
	DB	008H
	DB	000H
	DB	010H
	DB	000H
	DB	060H
	DB	000H
	DB	000H
	DB	000H
	DB	000H
	DB	000H
	DB	000H
	DB	000H
	DB	000H
	DB	000H
	DB	000H
	DB	000H
	DB	000H
	DB	000H
	DB	000H
	DB	000H
	DB	000H
	DB	000H
	DB	000H
	DB	000H
	DB	000H
	DB	000H
	DB	000H
	DB	000H
	DB	000H
	DB	000H
	DB	000H
	DB	000H
	DB	000H
	DB	000H
	DB	000H
	DB	000H
	DB	000H
	DB	000H
	DB	000H
	DB	000H
	DB	000H
	DB	000H
	DB	000H
	DB	020H
	DB	000H
	DB	040H
	DB	000H
	DB	080H
	DB	001H
	DB	080H
	DB	001H
	DB	000H
	DB	003H
	DB	000H
	DB	003H
	DB	000H
	DB	006H
	DB	000H
	DB	006H
	DB	000H
	DB	006H
	DB	000H
	DB	006H
	DB	000H
	DB	006H
	DB	000H
	DB	006H
	DB	000H
	DB	006H
	DB	000H
	DB	003H
	DB	000H
	DB	003H
	DB	000H
	DB	001H
	DB	000H
	DB	001H
	DB	080H
	DB	000H
	DB	080H
	DB	000H
	DB	040H
	DB	000H
	DB	020H
	DB	000H
	DB	000H
	DB	000H
	DB	000H
	DB	000H
	DB	000H
	DB	040H
	DB	000H
	DB	020H
	DB	000H
	DB	010H
	DB	000H
	DB	018H
	DB	000H
	DB	008H
	DB	000H
	DB	00CH
	DB	000H
	DB	00CH
	DB	000H
	DB	006H
	DB	000H
	DB	006H
	DB	000H
	DB	006H
	DB	000H
	DB	006H
	DB	000H
	DB	006H
	DB	000H
	DB	006H
	DB	000H
	DB	006H
	DB	000H
	DB	00CH
	DB	000H
	DB	00CH
	DB	000H
	DB	008H
	DB	000H
	DB	018H
	DB	000H
	DB	010H
	DB	000H
	DB	020H
	DB	000H
	DB	040H
	DB	000H
	DB	000H
	DB	000H
	DB	000H
	DB	000H
	DB	000H
	DB	000H
	DB	000H
	DB	000H
	DB	000H
	DB	000H
	DB	000H
	DB	000H
	DB	000H
	DB	000H
	DB	002H
	DB	000H
	DB	002H
	DB	000H
	DB	002H
	DB	000H
	DB	072H
	DB	070H
	DB	03AH
	DB	0E0H
	DB	00FH
	DB	080H
	DB	00FH
	DB	080H
	DB	03AH
	DB	0E0H
	DB	072H
	DB	070H
	DB	002H
	DB	000H
	DB	002H
	DB	000H
	DB	002H
	DB	000H
	DB	000H
	DB	000H
	DB	000H
	DB	000H
	DB	000H
	DB	000H
	DB	000H
	DB	000H
	DB	000H
	DB	000H
	DB	000H
	DB	000H
	DB	000H
	DB	000H
	DB	000H
	DB	000H
	DB	000H
	DB	000H
	DB	000H
	DB	000H
	DB	000H
	DB	000H
	DB	000H
	DB	000H
	DB	000H
	DB	000H
	DB	002H
	DB	000H
	DB	002H
	DB	000H
	DB	002H
	DB	000H
	DB	002H
	DB	000H
	DB	002H
	DB	000H
	DB	07FH
	DB	0F0H
	DB	002H
	DB	000H
	DB	002H
	DB	000H
	DB	002H
	DB	000H
	DB	002H
	DB	000H
	DB	002H
	DB	000H
	DB	000H
	DB	000H
	DB	000H
	DB	000H
	DB	000H
	DB	000H
	DB	000H
	DB	000H
	DB	000H
	DB	000H
	DB	000H
	DB	000H
	DB	000H
	DB	000H
	DB	000H
	DB	000H
	DB	000H
	DB	000H
	DB	000H
	DB	000H
	DB	000H
	DB	000H
	DB	000H
	DB	000H
	DB	000H
	DB	000H
	DB	000H
	DB	000H
	DB	000H
	DB	000H
	DB	000H
	DB	000H
	DB	000H
	DB	000H
	DB	000H
	DB	000H
	DB	000H
	DB	000H
	DB	000H
	DB	000H
	DB	000H
	DB	000H
	DB	000H
	DB	000H
	DB	000H
	DB	000H
	DB	000H
	DB	000H
	DB	030H
	DB	000H
	DB	038H
	DB	000H
	DB	008H
	DB	000H
	DB	008H
	DB	000H
	DB	010H
	DB	000H
	DB	060H
	DB	000H
	DB	000H
	DB	000H
	DB	000H
	DB	000H
	DB	000H
	DB	000H
	DB	000H
	DB	000H
	DB	000H
	DB	000H
	DB	000H
	DB	000H
	DB	000H
	DB	000H
	DB	000H
	DB	000H
	DB	000H
	DB	000H
	DB	000H
	DB	000H
	DB	000H
	DB	000H
	DB	000H
	DB	000H
	DB	07FH
	DB	0E0H
	DB	000H
	DB	000H
	DB	000H
	DB	000H
	DB	000H
	DB	000H
	DB	000H
	DB	000H
	DB	000H
	DB	000H
	DB	000H
	DB	000H
	DB	000H
	DB	000H
	DB	000H
	DB	000H
	DB	000H
	DB	000H
	DB	000H
	DB	000H
	DB	000H
	DB	000H
	DB	000H
	DB	000H
	DB	000H
	DB	000H
	DB	000H
	DB	000H
	DB	000H
	DB	000H
	DB	000H
	DB	000H
	DB	000H
	DB	000H
	DB	000H
	DB	000H
	DB	000H
	DB	000H
	DB	000H
	DB	000H
	DB	000H
	DB	000H
	DB	000H
	DB	000H
	DB	000H
	DB	000H
	DB	000H
	DB	000H
	DB	000H
	DB	000H
	DB	000H
	DB	000H
	DB	000H
	DB	000H
	DB	000H
	DB	000H
	DB	000H
	DB	000H
	DB	038H
	DB	000H
	DB	038H
	DB	000H
	DB	038H
	DB	000H
	DB	000H
	DB	000H
	DB	000H
	DB	000H
	DB	000H
	DB	000H
	DB	000H
	DB	000H
	DB	000H
	DB	000H
	DB	000H
	DB	020H
	DB	000H
	DB	060H
	DB	000H
	DB	040H
	DB	000H
	DB	0C0H
	DB	000H
	DB	080H
	DB	000H
	DB	080H
	DB	001H
	DB	000H
	DB	001H
	DB	000H
	DB	002H
	DB	000H
	DB	002H
	DB	000H
	DB	006H
	DB	000H
	DB	004H
	DB	000H
	DB	004H
	DB	000H
	DB	008H
	DB	000H
	DB	008H
	DB	000H
	DB	010H
	DB	000H
	DB	010H
	DB	000H
	DB	030H
	DB	000H
	DB	020H
	DB	000H
	DB	060H
	DB	000H
	DB	040H
	DB	000H
	DB	000H
	DB	000H
	DB	000H
	DB	000H
	DB	000H
	DB	000H
	DB	000H
	DB	000H
	DB	000H
	DB	000H
	DB	000H
	DB	000H
	DB	00FH
	DB	000H
	DB	019H
	DB	080H
	DB	030H
	DB	0C0H
	DB	030H
	DB	0C0H
	DB	060H
	DB	060H
	DB	060H
	DB	060H
	DB	060H
	DB	060H
	DB	060H
	DB	060H
	DB	060H
	DB	060H
	DB	060H
	DB	060H
	DB	060H
	DB	060H
	DB	060H
	DB	060H
	DB	030H
	DB	0C0H
	DB	030H
	DB	0C0H
	DB	019H
	DB	080H
	DB	00FH
	DB	000H
	DB	000H
	DB	000H
	DB	000H
	DB	000H
	DB	000H
	DB	000H
	DB	000H
	DB	000H
	DB	000H
	DB	000H
	DB	000H
	DB	000H
	DB	000H
	DB	000H
	DB	000H
	DB	000H
	DB	002H
	DB	000H
	DB	006H
	DB	000H
	DB	03EH
	DB	000H
	DB	006H
	DB	000H
	DB	006H
	DB	000H
	DB	006H
	DB	000H
	DB	006H
	DB	000H
	DB	006H
	DB	000H
	DB	006H
	DB	000H
	DB	006H
	DB	000H
	DB	006H
	DB	000H
	DB	006H
	DB	000H
	DB	006H
	DB	000H
	DB	006H
	DB	000H
	DB	006H
	DB	000H
	DB	03FH
	DB	0C0H
	DB	000H
	DB	000H
	DB	000H
	DB	000H
	DB	000H
	DB	000H
	DB	000H
	DB	000H
	DB	000H
	DB	000H
	DB	000H
	DB	000H
	DB	000H
	DB	000H
	DB	000H
	DB	000H
	DB	01FH
	DB	000H
	DB	021H
	DB	080H
	DB	040H
	DB	0C0H
	DB	060H
	DB	0C0H
	DB	060H
	DB	0C0H
	DB	000H
	DB	0C0H
	DB	001H
	DB	080H
	DB	001H
	DB	080H
	DB	003H
	DB	000H
	DB	004H
	DB	000H
	DB	008H
	DB	000H
	DB	010H
	DB	040H
	DB	020H
	DB	040H
	DB	040H
	DB	040H
	DB	07FH
	DB	0C0H
	DB	07FH
	DB	0C0H
	DB	000H
	DB	000H
	DB	000H
	DB	000H
	DB	000H
	DB	000H
	DB	000H
	DB	000H
	DB	000H
	DB	000H
	DB	000H
	DB	000H
	DB	000H
	DB	000H
	DB	000H
	DB	000H
	DB	01EH
	DB	000H
	DB	023H
	DB	000H
	DB	061H
	DB	080H
	DB	061H
	DB	080H
	DB	061H
	DB	080H
	DB	001H
	DB	080H
	DB	003H
	DB	000H
	DB	00EH
	DB	000H
	DB	001H
	DB	080H
	DB	000H
	DB	080H
	DB	000H
	DB	0C0H
	DB	060H
	DB	0C0H
	DB	060H
	DB	0C0H
	DB	060H
	DB	0C0H
	DB	021H
	DB	080H
	DB	01FH
	DB	000H
	DB	000H
	DB	000H
	DB	000H
	DB	000H
	DB	000H
	DB	000H
	DB	000H
	DB	000H
	DB	000H
	DB	000H
	DB	000H
	DB	000H
	DB	000H
	DB	000H
	DB	000H
	DB	080H
	DB	001H
	DB	080H
	DB	003H
	DB	080H
	DB	003H
	DB	080H
	DB	005H
	DB	080H
	DB	009H
	DB	080H
	DB	009H
	DB	080H
	DB	011H
	DB	080H
	DB	021H
	DB	080H
	DB	021H
	DB	080H
	DB	041H
	DB	080H
	DB	07FH
	DB	0E0H
	DB	001H
	DB	080H
	DB	001H
	DB	080H
	DB	001H
	DB	080H
	DB	001H
	DB	080H
	DB	007H
	DB	0E0H
	DB	000H
	DB	000H
	DB	000H
	DB	000H
	DB	000H
	DB	000H
	DB	000H
	DB	000H
	DB	000H
	DB	000H
	DB	000H
	DB	000H
	DB	000H
	DB	000H
	DB	000H
	DB	000H
	DB	03FH
	DB	0C0H
	DB	03FH
	DB	0C0H
	DB	020H
	DB	000H
	DB	020H
	DB	000H
	DB	020H
	DB	000H
	DB	020H
	DB	000H
	DB	02FH
	DB	000H
	DB	031H
	DB	080H
	DB	020H
	DB	0C0H
	DB	000H
	DB	0C0H
	DB	000H
	DB	0C0H
	DB	060H
	DB	0C0H
	DB	060H
	DB	0C0H
	DB	041H
	DB	080H
	DB	021H
	DB	080H
	DB	01FH
	DB	000H
	DB	000H
	DB	000H
	DB	000H
	DB	000H
	DB	000H
	DB	000H
	DB	000H
	DB	000H
	DB	000H
	DB	000H
	DB	000H
	DB	000H
	DB	000H
	DB	000H
	DB	000H
	DB	000H
	DB	007H
	DB	080H
	DB	018H
	DB	0C0H
	DB	030H
	DB	0C0H
	DB	030H
	DB	000H
	DB	020H
	DB	000H
	DB	060H
	DB	000H
	DB	067H
	DB	080H
	DB	068H
	DB	0C0H
	DB	070H
	DB	060H
	DB	060H
	DB	060H
	DB	060H
	DB	060H
	DB	060H
	DB	060H
	DB	020H
	DB	060H
	DB	030H
	DB	040H
	DB	018H
	DB	0C0H
	DB	00FH
	DB	000H
	DB	000H
	DB	000H
	DB	000H
	DB	000H
	DB	000H
	DB	000H
	DB	000H
	DB	000H
	DB	000H
	DB	000H
	DB	000H
	DB	000H
	DB	000H
	DB	000H
	DB	000H
	DB	000H
	DB	01FH
	DB	0E0H
	DB	03FH
	DB	0E0H
	DB	030H
	DB	040H
	DB	020H
	DB	080H
	DB	020H
	DB	080H
	DB	000H
	DB	080H
	DB	001H
	DB	000H
	DB	001H
	DB	000H
	DB	002H
	DB	000H
	DB	002H
	DB	000H
	DB	002H
	DB	000H
	DB	006H
	DB	000H
	DB	006H
	DB	000H
	DB	006H
	DB	000H
	DB	006H
	DB	000H
	DB	006H
	DB	000H
	DB	000H
	DB	000H
	DB	000H
	DB	000H
	DB	000H
	DB	000H
	DB	000H
	DB	000H
	DB	000H
	DB	000H
	DB	000H
	DB	000H
	DB	000H
	DB	000H
	DB	000H
	DB	000H
	DB	01FH
	DB	080H
	DB	030H
	DB	0C0H
	DB	060H
	DB	060H
	DB	060H
	DB	060H
	DB	060H
	DB	060H
	DB	070H
	DB	040H
	DB	03CH
	DB	0C0H
	DB	00FH
	DB	000H
	DB	033H
	DB	080H
	DB	020H
	DB	0C0H
	DB	060H
	DB	060H
	DB	060H
	DB	060H
	DB	060H
	DB	060H
	DB	060H
	DB	060H
	DB	030H
	DB	0C0H
	DB	00FH
	DB	080H
	DB	000H
	DB	000H
	DB	000H
	DB	000H
	DB	000H
	DB	000H
	DB	000H
	DB	000H
	DB	000H
	DB	000H
	DB	000H
	DB	000H
	DB	000H
	DB	000H
	DB	000H
	DB	000H
	DB	00FH
	DB	000H
	DB	030H
	DB	080H
	DB	030H
	DB	0C0H
	DB	060H
	DB	040H
	DB	060H
	DB	060H
	DB	060H
	DB	060H
	DB	060H
	DB	060H
	DB	060H
	DB	0E0H
	DB	031H
	DB	060H
	DB	01EH
	DB	060H
	DB	000H
	DB	060H
	DB	000H
	DB	0C0H
	DB	000H
	DB	0C0H
	DB	030H
	DB	080H
	DB	031H
	DB	080H
	DB	01EH
	DB	000H
	DB	000H
	DB	000H
	DB	000H
	DB	000H
	DB	000H
	DB	000H
	DB	000H
	DB	000H
	DB	000H
	DB	000H
	DB	000H
	DB	000H
	DB	000H
	DB	000H
	DB	000H
	DB	000H
	DB	000H
	DB	000H
	DB	000H
	DB	000H
	DB	000H
	DB	000H
	DB	000H
	DB	000H
	DB	007H
	DB	000H
	DB	007H
	DB	000H
	DB	007H
	DB	000H
	DB	000H
	DB	000H
	DB	000H
	DB	000H
	DB	000H
	DB	000H
	DB	000H
	DB	000H
	DB	000H
	DB	000H
	DB	000H
	DB	000H
	DB	007H
	DB	000H
	DB	007H
	DB	000H
	DB	007H
	DB	000H
	DB	000H
	DB	000H
	DB	000H
	DB	000H
	DB	000H
	DB	000H
	DB	000H
	DB	000H
	DB	000H
	DB	000H
	DB	000H
	DB	000H
	DB	000H
	DB	000H
	DB	000H
	DB	000H
	DB	000H
	DB	000H
	DB	000H
	DB	000H
	DB	000H
	DB	000H
	DB	000H
	DB	000H
	DB	000H
	DB	000H
	DB	006H
	DB	000H
	DB	006H
	DB	000H
	DB	000H
	DB	000H
	DB	000H
	DB	000H
	DB	000H
	DB	000H
	DB	000H
	DB	000H
	DB	000H
	DB	000H
	DB	000H
	DB	000H
	DB	000H
	DB	000H
	DB	006H
	DB	000H
	DB	006H
	DB	000H
	DB	002H
	DB	000H
	DB	004H
	DB	000H
	DB	000H
	DB	000H
	DB	000H
	DB	000H
	DB	000H
	DB	000H
	DB	000H
	DB	000H
	DB	000H
	DB	000H
	DB	000H
	DB	020H
	DB	000H
	DB	040H
	DB	000H
	DB	080H
	DB	001H
	DB	000H
	DB	002H
	DB	000H
	DB	004H
	DB	000H
	DB	008H
	DB	000H
	DB	010H
	DB	000H
	DB	020H
	DB	000H
	DB	010H
	DB	000H
	DB	008H
	DB	000H
	DB	004H
	DB	000H
	DB	002H
	DB	000H
	DB	001H
	DB	000H
	DB	000H
	DB	080H
	DB	000H
	DB	040H
	DB	000H
	DB	020H
	DB	000H
	DB	000H
	DB	000H
	DB	000H
	DB	000H
	DB	000H
	DB	000H
	DB	000H
	DB	000H
	DB	000H
	DB	000H
	DB	000H
	DB	000H
	DB	000H
	DB	000H
	DB	000H
	DB	000H
	DB	000H
	DB	000H
	DB	000H
	DB	000H
	DB	000H
	DB	000H
	DB	000H
	DB	000H
	DB	000H
	DB	07FH
	DB	0E0H
	DB	000H
	DB	000H
	DB	000H
	DB	000H
	DB	000H
	DB	000H
	DB	000H
	DB	000H
	DB	07FH
	DB	0E0H
	DB	000H
	DB	000H
	DB	000H
	DB	000H
	DB	000H
	DB	000H
	DB	000H
	DB	000H
	DB	000H
	DB	000H
	DB	000H
	DB	000H
	DB	000H
	DB	000H
	DB	000H
	DB	000H
	DB	000H
	DB	000H
	DB	000H
	DB	000H
	DB	000H
	DB	000H
	DB	000H
	DB	000H
	DB	020H
	DB	000H
	DB	010H
	DB	000H
	DB	008H
	DB	000H
	DB	004H
	DB	000H
	DB	002H
	DB	000H
	DB	001H
	DB	000H
	DB	000H
	DB	080H
	DB	000H
	DB	040H
	DB	000H
	DB	020H
	DB	000H
	DB	040H
	DB	000H
	DB	080H
	DB	001H
	DB	000H
	DB	002H
	DB	000H
	DB	004H
	DB	000H
	DB	008H
	DB	000H
	DB	010H
	DB	000H
	DB	020H
	DB	000H
	DB	000H
	DB	000H
	DB	000H
	DB	000H
	DB	000H
	DB	000H
	DB	000H
	DB	000H
	DB	000H
	DB	000H
	DB	000H
	DB	000H
	DB	000H
	DB	000H
	DB	00FH
	DB	080H
	DB	030H
	DB	0C0H
	DB	040H
	DB	060H
	DB	040H
	DB	060H
	DB	060H
	DB	060H
	DB	060H
	DB	060H
	DB	000H
	DB	0C0H
	DB	001H
	DB	080H
	DB	006H
	DB	000H
	DB	004H
	DB	000H
	DB	004H
	DB	000H
	DB	004H
	DB	000H
	DB	000H
	DB	000H
	DB	000H
	DB	000H
	DB	00EH
	DB	000H
	DB	00EH
	DB	000H
	DB	00EH
	DB	000H
	DB	000H
	DB	000H
	DB	000H
	DB	000H
	DB	000H
	DB	000H
	DB	000H
	DB	000H
	DB	000H
	DB	000H
	DB	000H
	DB	000H
	DB	000H
	DB	000H
	DB	000H
	DB	000H
	DB	007H
	DB	080H
	DB	01CH
	DB	060H
	DB	010H
	DB	020H
	DB	033H
	DB	050H
	DB	026H
	DB	0D0H
	DB	064H
	DB	090H
	DB	064H
	DB	090H
	DB	068H
	DB	090H
	DB	068H
	DB	090H
	DB	069H
	DB	090H
	DB	069H
	DB	0A0H
	DB	066H
	DB	0C0H
	DB	030H
	DB	010H
	DB	030H
	DB	020H
	DB	018H
	DB	040H
	DB	007H
	DB	080H
	DB	000H
	DB	000H
	DB	000H
	DB	000H
	DB	000H
	DB	000H
	DB	000H
	DB	000H
	DB	000H
	DB	000H
	DB	000H
	DB	000H
	DB	000H
	DB	000H
	DB	000H
	DB	000H
	DB	006H
	DB	000H
	DB	006H
	DB	000H
	DB	00EH
	DB	000H
	DB	00BH
	DB	000H
	DB	00BH
	DB	000H
	DB	013H
	DB	000H
	DB	011H
	DB	080H
	DB	011H
	DB	080H
	DB	011H
	DB	080H
	DB	01FH
	DB	080H
	DB	020H
	DB	0C0H
	DB	020H
	DB	0C0H
	DB	020H
	DB	0C0H
	DB	020H
	DB	060H
	DB	060H
	DB	060H
	DB	0F0H
	DB	0F0H
	DB	000H
	DB	000H
	DB	000H
	DB	000H
	DB	000H
	DB	000H
	DB	000H
	DB	000H
	DB	000H
	DB	000H
	DB	000H
	DB	000H
	DB	000H
	DB	000H
	DB	000H
	DB	000H
	DB	0FFH
	DB	000H
	DB	061H
	DB	080H
	DB	060H
	DB	0C0H
	DB	060H
	DB	0C0H
	DB	060H
	DB	0C0H
	DB	060H
	DB	0C0H
	DB	061H
	DB	080H
	DB	07FH
	DB	000H
	DB	060H
	DB	0C0H
	DB	060H
	DB	040H
	DB	060H
	DB	060H
	DB	060H
	DB	060H
	DB	060H
	DB	060H
	DB	060H
	DB	060H
	DB	060H
	DB	0C0H
	DB	0FFH
	DB	080H
	DB	000H
	DB	000H
	DB	000H
	DB	000H
	DB	000H
	DB	000H
	DB	000H
	DB	000H
	DB	000H
	DB	000H
	DB	000H
	DB	000H
	DB	000H
	DB	000H
	DB	000H
	DB	000H
	DB	007H
	DB	0E0H
	DB	018H
	DB	060H
	DB	030H
	DB	020H
	DB	030H
	DB	020H
	DB	020H
	DB	000H
	DB	060H
	DB	000H
	DB	060H
	DB	000H
	DB	060H
	DB	000H
	DB	060H
	DB	000H
	DB	060H
	DB	000H
	DB	060H
	DB	000H
	DB	060H
	DB	020H
	DB	030H
	DB	020H
	DB	030H
	DB	040H
	DB	018H
	DB	080H
	DB	00FH
	DB	000H
	DB	000H
	DB	000H
	DB	000H
	DB	000H
	DB	000H
	DB	000H
	DB	000H
	DB	000H
	DB	000H
	DB	000H
	DB	000H
	DB	000H
	DB	000H
	DB	000H
	DB	000H
	DB	000H
	DB	0FEH
	DB	000H
	DB	061H
	DB	080H
	DB	060H
	DB	0C0H
	DB	060H
	DB	0C0H
	DB	060H
	DB	060H
	DB	060H
	DB	060H
	DB	060H
	DB	060H
	DB	060H
	DB	060H
	DB	060H
	DB	060H
	DB	060H
	DB	060H
	DB	060H
	DB	060H
	DB	060H
	DB	060H
	DB	060H
	DB	0C0H
	DB	060H
	DB	0C0H
	DB	063H
	DB	080H
	DB	0FEH
	DB	000H
	DB	000H
	DB	000H
	DB	000H
	DB	000H
	DB	000H
	DB	000H
	DB	000H
	DB	000H
	DB	000H
	DB	000H
	DB	000H
	DB	000H
	DB	000H
	DB	000H
	DB	000H
	DB	000H
	DB	0FFH
	DB	0C0H
	DB	060H
	DB	040H
	DB	060H
	DB	020H
	DB	060H
	DB	000H
	DB	060H
	DB	000H
	DB	061H
	DB	000H
	DB	061H
	DB	000H
	DB	07FH
	DB	000H
	DB	061H
	DB	000H
	DB	061H
	DB	000H
	DB	060H
	DB	000H
	DB	060H
	DB	000H
	DB	060H
	DB	020H
	DB	060H
	DB	020H
	DB	060H
	DB	040H
	DB	0FFH
	DB	0C0H
	DB	000H
	DB	000H
	DB	000H
	DB	000H
	DB	000H
	DB	000H
	DB	000H
	DB	000H
	DB	000H
	DB	000H
	DB	000H
	DB	000H
	DB	000H
	DB	000H
	DB	000H
	DB	000H
	DB	0FFH
	DB	0C0H
	DB	060H
	DB	0C0H
	DB	060H
	DB	020H
	DB	060H
	DB	020H
	DB	060H
	DB	000H
	DB	061H
	DB	000H
	DB	061H
	DB	000H
	DB	07FH
	DB	000H
	DB	061H
	DB	000H
	DB	061H
	DB	000H
	DB	060H
	DB	000H
	DB	060H
	DB	000H
	DB	060H
	DB	000H
	DB	060H
	DB	000H
	DB	060H
	DB	000H
	DB	0F0H
	DB	000H
	DB	000H
	DB	000H
	DB	000H
	DB	000H
	DB	000H
	DB	000H
	DB	000H
	DB	000H
	DB	000H
	DB	000H
	DB	000H
	DB	000H
	DB	000H
	DB	000H
	DB	000H
	DB	000H
	DB	00FH
	DB	040H
	DB	018H
	DB	0C0H
	DB	030H
	DB	040H
	DB	030H
	DB	040H
	DB	020H
	DB	000H
	DB	060H
	DB	000H
	DB	060H
	DB	000H
	DB	060H
	DB	000H
	DB	060H
	DB	000H
	DB	063H
	DB	0F0H
	DB	060H
	DB	0C0H
	DB	060H
	DB	0C0H
	DB	030H
	DB	0C0H
	DB	030H
	DB	0C0H
	DB	018H
	DB	0C0H
	DB	00FH
	DB	000H
	DB	000H
	DB	000H
	DB	000H
	DB	000H
	DB	000H
	DB	000H
	DB	000H
	DB	000H
	DB	000H
	DB	000H
	DB	000H
	DB	000H
	DB	000H
	DB	000H
	DB	000H
	DB	000H
	DB	0F0H
	DB	0F0H
	DB	060H
	DB	060H
	DB	060H
	DB	060H
	DB	060H
	DB	060H
	DB	060H
	DB	060H
	DB	060H
	DB	060H
	DB	060H
	DB	060H
	DB	07FH
	DB	0E0H
	DB	060H
	DB	060H
	DB	060H
	DB	060H
	DB	060H
	DB	060H
	DB	060H
	DB	060H
	DB	060H
	DB	060H
	DB	060H
	DB	060H
	DB	060H
	DB	060H
	DB	0F0H
	DB	0F0H
	DB	000H
	DB	000H
	DB	000H
	DB	000H
	DB	000H
	DB	000H
	DB	000H
	DB	000H
	DB	000H
	DB	000H
	DB	000H
	DB	000H
	DB	000H
	DB	000H
	DB	000H
	DB	000H
	DB	03FH
	DB	0C0H
	DB	006H
	DB	000H
	DB	006H
	DB	000H
	DB	006H
	DB	000H
	DB	006H
	DB	000H
	DB	006H
	DB	000H
	DB	006H
	DB	000H
	DB	006H
	DB	000H
	DB	006H
	DB	000H
	DB	006H
	DB	000H
	DB	006H
	DB	000H
	DB	006H
	DB	000H
	DB	006H
	DB	000H
	DB	006H
	DB	000H
	DB	006H
	DB	000H
	DB	03FH
	DB	0C0H
	DB	000H
	DB	000H
	DB	000H
	DB	000H
	DB	000H
	DB	000H
	DB	000H
	DB	000H
	DB	000H
	DB	000H
	DB	000H
	DB	000H
	DB	000H
	DB	000H
	DB	000H
	DB	000H
	DB	00FH
	DB	0F0H
	DB	001H
	DB	080H
	DB	001H
	DB	080H
	DB	001H
	DB	080H
	DB	001H
	DB	080H
	DB	001H
	DB	080H
	DB	001H
	DB	080H
	DB	001H
	DB	080H
	DB	001H
	DB	080H
	DB	001H
	DB	080H
	DB	001H
	DB	080H
	DB	001H
	DB	080H
	DB	001H
	DB	080H
	DB	001H
	DB	080H
	DB	001H
	DB	080H
	DB	001H
	DB	080H
	DB	061H
	DB	080H
	DB	063H
	DB	000H
	DB	03EH
	DB	000H
	DB	000H
	DB	000H
	DB	000H
	DB	000H
	DB	000H
	DB	000H
	DB	000H
	DB	000H
	DB	000H
	DB	000H
	DB	0F3H
	DB	0E0H
	DB	060H
	DB	080H
	DB	061H
	DB	000H
	DB	062H
	DB	000H
	DB	062H
	DB	000H
	DB	064H
	DB	000H
	DB	06CH
	DB	000H
	DB	07CH
	DB	000H
	DB	076H
	DB	000H
	DB	067H
	DB	000H
	DB	063H
	DB	000H
	DB	063H
	DB	080H
	DB	061H
	DB	080H
	DB	060H
	DB	0C0H
	DB	060H
	DB	0E0H
	DB	0F1H
	DB	0F0H
	DB	000H
	DB	000H
	DB	000H
	DB	000H
	DB	000H
	DB	000H
	DB	000H
	DB	000H
	DB	000H
	DB	000H
	DB	000H
	DB	000H
	DB	000H
	DB	000H
	DB	000H
	DB	000H
	DB	0F0H
	DB	000H
	DB	060H
	DB	000H
	DB	060H
	DB	000H
	DB	060H
	DB	000H
	DB	060H
	DB	000H
	DB	060H
	DB	000H
	DB	060H
	DB	000H
	DB	060H
	DB	000H
	DB	060H
	DB	000H
	DB	060H
	DB	000H
	DB	060H
	DB	000H
	DB	060H
	DB	000H
	DB	060H
	DB	020H
	DB	060H
	DB	020H
	DB	060H
	DB	040H
	DB	0FFH
	DB	0C0H
	DB	000H
	DB	000H
	DB	000H
	DB	000H
	DB	000H
	DB	000H
	DB	000H
	DB	000H
	DB	000H
	DB	000H
	DB	000H
	DB	000H
	DB	000H
	DB	000H
	DB	000H
	DB	000H
	DB	0F0H
	DB	0F0H
	DB	070H
	DB	0E0H
	DB	070H
	DB	0E0H
	DB	070H
	DB	0E0H
	DB	059H
	DB	060H
	DB	059H
	DB	060H
	DB	059H
	DB	060H
	DB	059H
	DB	060H
	DB	05AH
	DB	060H
	DB	04EH
	DB	060H
	DB	04EH
	DB	060H
	DB	04EH
	DB	060H
	DB	04EH
	DB	060H
	DB	044H
	DB	060H
	DB	044H
	DB	060H
	DB	0E4H
	DB	0F0H
	DB	000H
	DB	000H
	DB	000H
	DB	000H
	DB	000H
	DB	000H
	DB	000H
	DB	000H
	DB	000H
	DB	000H
	DB	000H
	DB	000H
	DB	000H
	DB	000H
	DB	000H
	DB	000H
	DB	0E0H
	DB	070H
	DB	070H
	DB	020H
	DB	070H
	DB	020H
	DB	058H
	DB	020H
	DB	058H
	DB	020H
	DB	04CH
	DB	020H
	DB	046H
	DB	020H
	DB	046H
	DB	020H
	DB	043H
	DB	020H
	DB	043H
	DB	020H
	DB	041H
	DB	0A0H
	DB	040H
	DB	0E0H
	DB	040H
	DB	0E0H
	DB	040H
	DB	060H
	DB	040H
	DB	060H
	DB	0E0H
	DB	020H
	DB	000H
	DB	000H
	DB	000H
	DB	000H
	DB	000H
	DB	000H
	DB	000H
	DB	000H
	DB	000H
	DB	000H
	DB	000H
	DB	000H
	DB	000H
	DB	000H
	DB	000H
	DB	000H
	DB	00FH
	DB	000H
	DB	019H
	DB	080H
	DB	030H
	DB	0C0H
	DB	030H
	DB	040H
	DB	060H
	DB	060H
	DB	060H
	DB	060H
	DB	060H
	DB	060H
	DB	060H
	DB	060H
	DB	060H
	DB	060H
	DB	060H
	DB	060H
	DB	060H
	DB	060H
	DB	060H
	DB	060H
	DB	030H
	DB	040H
	DB	030H
	DB	0C0H
	DB	019H
	DB	080H
	DB	00FH
	DB	000H
	DB	000H
	DB	000H
	DB	000H
	DB	000H
	DB	000H
	DB	000H
	DB	000H
	DB	000H
	DB	000H
	DB	000H
	DB	000H
	DB	000H
	DB	000H
	DB	000H
	DB	000H
	DB	000H
	DB	0FFH
	DB	080H
	DB	060H
	DB	0C0H
	DB	060H
	DB	060H
	DB	060H
	DB	060H
	DB	060H
	DB	060H
	DB	060H
	DB	060H
	DB	060H
	DB	060H
	DB	060H
	DB	0C0H
	DB	07FH
	DB	080H
	DB	060H
	DB	000H
	DB	060H
	DB	000H
	DB	060H
	DB	000H
	DB	060H
	DB	000H
	DB	060H
	DB	000H
	DB	060H
	DB	000H
	DB	0F0H
	DB	000H
	DB	000H
	DB	000H
	DB	000H
	DB	000H
	DB	000H
	DB	000H
	DB	000H
	DB	000H
	DB	000H
	DB	000H
	DB	000H
	DB	000H
	DB	000H
	DB	000H
	DB	000H
	DB	000H
	DB	00FH
	DB	000H
	DB	019H
	DB	080H
	DB	030H
	DB	0C0H
	DB	030H
	DB	040H
	DB	060H
	DB	060H
	DB	060H
	DB	060H
	DB	060H
	DB	060H
	DB	060H
	DB	060H
	DB	060H
	DB	060H
	DB	060H
	DB	060H
	DB	060H
	DB	060H
	DB	06EH
	DB	060H
	DB	032H
	DB	040H
	DB	031H
	DB	0C0H
	DB	011H
	DB	080H
	DB	00FH
	DB	080H
	DB	001H
	DB	0E0H
	DB	000H
	DB	0C0H
	DB	000H
	DB	000H
	DB	000H
	DB	000H
	DB	000H
	DB	000H
	DB	000H
	DB	000H
	DB	000H
	DB	000H
	DB	000H
	DB	000H
	DB	0FFH
	DB	080H
	DB	060H
	DB	0C0H
	DB	060H
	DB	060H
	DB	060H
	DB	060H
	DB	060H
	DB	060H
	DB	060H
	DB	060H
	DB	060H
	DB	0C0H
	DB	07FH
	DB	000H
	DB	066H
	DB	000H
	DB	063H
	DB	000H
	DB	063H
	DB	000H
	DB	061H
	DB	080H
	DB	061H
	DB	080H
	DB	060H
	DB	0C0H
	DB	060H
	DB	0C0H
	DB	0F0H
	DB	070H
	DB	000H
	DB	000H
	DB	000H
	DB	000H
	DB	000H
	DB	000H
	DB	000H
	DB	000H
	DB	000H
	DB	000H
	DB	000H
	DB	000H
	DB	000H
	DB	000H
	DB	000H
	DB	000H
	DB	01FH
	DB	020H
	DB	030H
	DB	0E0H
	DB	060H
	DB	020H
	DB	060H
	DB	020H
	DB	060H
	DB	000H
	DB	070H
	DB	000H
	DB	03CH
	DB	000H
	DB	00FH
	DB	000H
	DB	003H
	DB	0C0H
	DB	000H
	DB	0C0H
	DB	000H
	DB	060H
	DB	040H
	DB	060H
	DB	040H
	DB	060H
	DB	060H
	DB	060H
	DB	070H
	DB	0C0H
	DB	04FH
	DB	080H
	DB	000H
	DB	000H
	DB	000H
	DB	000H
	DB	000H
	DB	000H
	DB	000H
	DB	000H
	DB	000H
	DB	000H
	DB	000H
	DB	000H
	DB	000H
	DB	000H
	DB	000H
	DB	000H
	DB	07FH
	DB	0E0H
	DB	046H
	DB	020H
	DB	086H
	DB	010H
	DB	086H
	DB	010H
	DB	006H
	DB	000H
	DB	006H
	DB	000H
	DB	006H
	DB	000H
	DB	006H
	DB	000H
	DB	006H
	DB	000H
	DB	006H
	DB	000H
	DB	006H
	DB	000H
	DB	006H
	DB	000H
	DB	006H
	DB	000H
	DB	006H
	DB	000H
	DB	006H
	DB	000H
	DB	00FH
	DB	000H
	DB	000H
	DB	000H
	DB	000H
	DB	000H
	DB	000H
	DB	000H
	DB	000H
	DB	000H
	DB	000H
	DB	000H
	DB	000H
	DB	000H
	DB	000H
	DB	000H
	DB	000H
	DB	000H
	DB	0F0H
	DB	070H
	DB	060H
	DB	020H
	DB	060H
	DB	020H
	DB	060H
	DB	020H
	DB	060H
	DB	020H
	DB	060H
	DB	020H
	DB	060H
	DB	020H
	DB	060H
	DB	020H
	DB	060H
	DB	020H
	DB	060H
	DB	020H
	DB	060H
	DB	020H
	DB	060H
	DB	020H
	DB	060H
	DB	020H
	DB	060H
	DB	020H
	DB	030H
	DB	040H
	DB	01FH
	DB	080H
	DB	000H
	DB	000H
	DB	000H
	DB	000H
	DB	000H
	DB	000H
	DB	000H
	DB	000H
	DB	000H
	DB	000H
	DB	000H
	DB	000H
	DB	000H
	DB	000H
	DB	000H
	DB	000H
	DB	0F8H
	DB	0F0H
	DB	070H
	DB	060H
	DB	030H
	DB	040H
	DB	030H
	DB	040H
	DB	030H
	DB	040H
	DB	030H
	DB	080H
	DB	018H
	DB	080H
	DB	018H
	DB	080H
	DB	018H
	DB	080H
	DB	018H
	DB	080H
	DB	00DH
	DB	000H
	DB	00DH
	DB	000H
	DB	00DH
	DB	000H
	DB	00FH
	DB	000H
	DB	006H
	DB	000H
	DB	006H
	DB	000H
	DB	000H
	DB	000H
	DB	000H
	DB	000H
	DB	000H
	DB	000H
	DB	000H
	DB	000H
	DB	000H
	DB	000H
	DB	000H
	DB	000H
	DB	000H
	DB	000H
	DB	000H
	DB	000H
	DB	0F7H
	DB	070H
	DB	066H
	DB	020H
	DB	066H
	DB	020H
	DB	066H
	DB	040H
	DB	066H
	DB	040H
	DB	067H
	DB	040H
	DB	037H
	DB	040H
	DB	037H
	DB	040H
	DB	03BH
	DB	080H
	DB	03BH
	DB	080H
	DB	03BH
	DB	080H
	DB	03BH
	DB	080H
	DB	039H
	DB	080H
	DB	011H
	DB	000H
	DB	011H
	DB	000H
	DB	011H
	DB	000H
	DB	000H
	DB	000H
	DB	000H
	DB	000H
	DB	000H
	DB	000H
	DB	000H
	DB	000H
	DB	000H
	DB	000H
	DB	000H
	DB	000H
	DB	000H
	DB	000H
	DB	000H
	DB	000H
	DB	079H
	DB	0E0H
	DB	030H
	DB	0C0H
	DB	018H
	DB	080H
	DB	018H
	DB	080H
	DB	019H
	DB	000H
	DB	00DH
	DB	000H
	DB	00EH
	DB	000H
	DB	006H
	DB	000H
	DB	006H
	DB	000H
	DB	007H
	DB	000H
	DB	00BH
	DB	000H
	DB	00BH
	DB	080H
	DB	019H
	DB	080H
	DB	011H
	DB	080H
	DB	030H
	DB	0C0H
	DB	079H
	DB	0E0H
	DB	000H
	DB	000H
	DB	000H
	DB	000H
	DB	000H
	DB	000H
	DB	000H
	DB	000H
	DB	000H
	DB	000H
	DB	000H
	DB	000H
	DB	000H
	DB	000H
	DB	000H
	DB	000H
	DB	0F8H
	DB	0F0H
	DB	070H
	DB	060H
	DB	030H
	DB	040H
	DB	030H
	DB	080H
	DB	018H
	DB	080H
	DB	018H
	DB	080H
	DB	00DH
	DB	000H
	DB	00DH
	DB	000H
	DB	00EH
	DB	000H
	DB	006H
	DB	000H
	DB	006H
	DB	000H
	DB	006H
	DB	000H
	DB	006H
	DB	000H
	DB	006H
	DB	000H
	DB	006H
	DB	000H
	DB	01FH
	DB	080H
	DB	000H
	DB	000H
	DB	000H
	DB	000H
	DB	000H
	DB	000H
	DB	000H
	DB	000H
	DB	000H
	DB	000H
	DB	000H
	DB	000H
	DB	000H
	DB	000H
	DB	000H
	DB	000H
	DB	03FH
	DB	0E0H
	DB	020H
	DB	0C0H
	DB	041H
	DB	0C0H
	DB	001H
	DB	080H
	DB	003H
	DB	080H
	DB	003H
	DB	000H
	DB	003H
	DB	000H
	DB	006H
	DB	000H
	DB	006H
	DB	000H
	DB	00CH
	DB	000H
	DB	00CH
	DB	000H
	DB	018H
	DB	000H
	DB	018H
	DB	020H
	DB	038H
	DB	020H
	DB	030H
	DB	040H
	DB	07FH
	DB	0C0H
	DB	000H
	DB	000H
	DB	000H
	DB	000H
	DB	000H
	DB	000H
	DB	000H
	DB	000H
	DB	000H
	DB	000H
	DB	007H
	DB	0E0H
	DB	004H
	DB	000H
	DB	004H
	DB	000H
	DB	004H
	DB	000H
	DB	004H
	DB	000H
	DB	004H
	DB	000H
	DB	004H
	DB	000H
	DB	004H
	DB	000H
	DB	004H
	DB	000H
	DB	004H
	DB	000H
	DB	004H
	DB	000H
	DB	004H
	DB	000H
	DB	004H
	DB	000H
	DB	004H
	DB	000H
	DB	004H
	DB	000H
	DB	004H
	DB	000H
	DB	004H
	DB	000H
	DB	004H
	DB	000H
	DB	004H
	DB	000H
	DB	004H
	DB	000H
	DB	007H
	DB	0E0H
	DB	000H
	DB	000H
	DB	000H
	DB	000H
	DB	000H
	DB	000H
	DB	000H
	DB	000H
	DB	000H
	DB	000H
	DB	020H
	DB	000H
	DB	010H
	DB	000H
	DB	010H
	DB	000H
	DB	010H
	DB	000H
	DB	008H
	DB	000H
	DB	008H
	DB	000H
	DB	004H
	DB	000H
	DB	004H
	DB	000H
	DB	004H
	DB	000H
	DB	002H
	DB	000H
	DB	002H
	DB	000H
	DB	001H
	DB	000H
	DB	001H
	DB	000H
	DB	001H
	DB	000H
	DB	000H
	DB	080H
	DB	000H
	DB	080H
	DB	000H
	DB	040H
	DB	000H
	DB	040H
	DB	000H
	DB	040H
	DB	000H
	DB	020H
	DB	000H
	DB	000H
	DB	000H
	DB	000H
	DB	03FH
	DB	000H
	DB	001H
	DB	000H
	DB	001H
	DB	000H
	DB	001H
	DB	000H
	DB	001H
	DB	000H
	DB	001H
	DB	000H
	DB	001H
	DB	000H
	DB	001H
	DB	000H
	DB	001H
	DB	000H
	DB	001H
	DB	000H
	DB	001H
	DB	000H
	DB	001H
	DB	000H
	DB	001H
	DB	000H
	DB	001H
	DB	000H
	DB	001H
	DB	000H
	DB	001H
	DB	000H
	DB	001H
	DB	000H
	DB	001H
	DB	000H
	DB	001H
	DB	000H
	DB	001H
	DB	000H
	DB	03FH
	DB	000H
	DB	000H
	DB	000H
	DB	000H
	DB	000H
	DB	000H
	DB	000H
	DB	007H
	DB	000H
	DB	00DH
	DB	080H
	DB	010H
	DB	040H
	DB	000H
	DB	000H
	DB	000H
	DB	000H
	DB	000H
	DB	000H
	DB	000H
	DB	000H
	DB	000H
	DB	000H
	DB	000H
	DB	000H
	DB	000H
	DB	000H
	DB	000H
	DB	000H
	DB	000H
	DB	000H
	DB	000H
	DB	000H
	DB	000H
	DB	000H
	DB	000H
	DB	000H
	DB	000H
	DB	000H
	DB	000H
	DB	000H
	DB	000H
	DB	000H
	DB	000H
	DB	000H
	DB	000H
	DB	000H
	DB	000H
	DB	000H
	DB	000H
	DB	000H
	DB	000H
	DB	000H
	DB	000H
	DB	000H
	DB	000H
	DB	000H
	DB	000H
	DB	000H
	DB	000H
	DB	000H
	DB	000H
	DB	000H
	DB	000H
	DB	000H
	DB	000H
	DB	000H
	DB	000H
	DB	000H
	DB	000H
	DB	000H
	DB	000H
	DB	000H
	DB	000H
	DB	000H
	DB	000H
	DB	000H
	DB	000H
	DB	000H
	DB	000H
	DB	000H
	DB	000H
	DB	000H
	DB	000H
	DB	000H
	DB	000H
	DB	000H
	DB	000H
	DB	000H
	DB	000H
	DB	000H
	DB	000H
	DB	000H
	DB	000H
	DB	000H
	DB	000H
	DB	000H
	DB	0FFH
	DB	0F0H
	DB	000H
	DB	000H
	DB	000H
	DB	000H
	DB	030H
	DB	000H
	DB	038H
	DB	000H
	DB	008H
	DB	000H
	DB	008H
	DB	000H
	DB	010H
	DB	000H
	DB	060H
	DB	000H
	DB	000H
	DB	000H
	DB	000H
	DB	000H
	DB	000H
	DB	000H
	DB	000H
	DB	000H
	DB	000H
	DB	000H
	DB	000H
	DB	000H
	DB	000H
	DB	000H
	DB	000H
	DB	000H
	DB	000H
	DB	000H
	DB	000H
	DB	000H
	DB	000H
	DB	000H
	DB	000H
	DB	000H
	DB	000H
	DB	000H
	DB	000H
	DB	000H
	DB	000H
	DB	000H
	DB	000H
	DB	000H
	DB	000H
	DB	000H
	DB	000H
	DB	000H
	DB	000H
	DB	000H
	DB	000H
	DB	000H
	DB	000H
	DB	000H
	DB	000H
	DB	000H
	DB	000H
	DB	000H
	DB	000H
	DB	000H
	DB	000H
	DB	000H
	DB	000H
	DB	000H
	DB	00FH
	DB	080H
	DB	030H
	DB	0C0H
	DB	030H
	DB	0C0H
	DB	007H
	DB	0C0H
	DB	01CH
	DB	0C0H
	DB	030H
	DB	0C0H
	DB	060H
	DB	0C0H
	DB	060H
	DB	0C0H
	DB	060H
	DB	0C0H
	DB	071H
	DB	0D0H
	DB	03EH
	DB	0F0H
	DB	000H
	DB	000H
	DB	000H
	DB	000H
	DB	000H
	DB	000H
	DB	000H
	DB	000H
	DB	000H
	DB	000H
	DB	000H
	DB	000H
	DB	000H
	DB	000H
	DB	010H
	DB	000H
	DB	070H
	DB	000H
	DB	030H
	DB	000H
	DB	030H
	DB	000H
	DB	030H
	DB	000H
	DB	030H
	DB	000H
	DB	033H
	DB	080H
	DB	03CH
	DB	0C0H
	DB	038H
	DB	060H
	DB	030H
	DB	060H
	DB	030H
	DB	060H
	DB	030H
	DB	060H
	DB	030H
	DB	060H
	DB	030H
	DB	060H
	DB	030H
	DB	040H
	DB	038H
	DB	0C0H
	DB	02FH
	DB	080H
	DB	000H
	DB	000H
	DB	000H
	DB	000H
	DB	000H
	DB	000H
	DB	000H
	DB	000H
	DB	000H
	DB	000H
	DB	000H
	DB	000H
	DB	000H
	DB	000H
	DB	000H
	DB	000H
	DB	000H
	DB	000H
	DB	000H
	DB	000H
	DB	000H
	DB	000H
	DB	000H
	DB	000H
	DB	000H
	DB	000H
	DB	00FH
	DB	000H
	DB	031H
	DB	080H
	DB	031H
	DB	080H
	DB	061H
	DB	080H
	DB	060H
	DB	000H
	DB	060H
	DB	000H
	DB	060H
	DB	000H
	DB	060H
	DB	040H
	DB	030H
	DB	040H
	DB	030H
	DB	080H
	DB	00FH
	DB	000H
	DB	000H
	DB	000H
	DB	000H
	DB	000H
	DB	000H
	DB	000H
	DB	000H
	DB	000H
	DB	000H
	DB	000H
	DB	000H
	DB	000H
	DB	000H
	DB	000H
	DB	000H
	DB	040H
	DB	001H
	DB	0C0H
	DB	000H
	DB	0C0H
	DB	000H
	DB	0C0H
	DB	000H
	DB	0C0H
	DB	000H
	DB	0C0H
	DB	01EH
	DB	0C0H
	DB	031H
	DB	0C0H
	DB	030H
	DB	0C0H
	DB	060H
	DB	0C0H
	DB	060H
	DB	0C0H
	DB	060H
	DB	0C0H
	DB	060H
	DB	0C0H
	DB	060H
	DB	0C0H
	DB	020H
	DB	0C0H
	DB	031H
	DB	0E0H
	DB	01EH
	DB	080H
	DB	000H
	DB	000H
	DB	000H
	DB	000H
	DB	000H
	DB	000H
	DB	000H
	DB	000H
	DB	000H
	DB	000H
	DB	000H
	DB	000H
	DB	000H
	DB	000H
	DB	000H
	DB	000H
	DB	000H
	DB	000H
	DB	000H
	DB	000H
	DB	000H
	DB	000H
	DB	000H
	DB	000H
	DB	000H
	DB	000H
	DB	007H
	DB	080H
	DB	018H
	DB	0C0H
	DB	010H
	DB	060H
	DB	030H
	DB	060H
	DB	03FH
	DB	0E0H
	DB	030H
	DB	000H
	DB	030H
	DB	000H
	DB	030H
	DB	000H
	DB	018H
	DB	020H
	DB	01CH
	DB	040H
	DB	007H
	DB	080H
	DB	000H
	DB	000H
	DB	000H
	DB	000H
	DB	000H
	DB	000H
	DB	000H
	DB	000H
	DB	000H
	DB	000H
	DB	000H
	DB	000H
	DB	000H
	DB	000H
	DB	000H
	DB	000H
	DB	003H
	DB	0C0H
	DB	006H
	DB	060H
	DB	00CH
	DB	060H
	DB	00CH
	DB	000H
	DB	00CH
	DB	000H
	DB	07FH
	DB	0C0H
	DB	00CH
	DB	000H
	DB	00CH
	DB	000H
	DB	00CH
	DB	000H
	DB	00CH
	DB	000H
	DB	00CH
	DB	000H
	DB	00CH
	DB	000H
	DB	00CH
	DB	000H
	DB	00CH
	DB	000H
	DB	00CH
	DB	000H
	DB	03FH
	DB	080H
	DB	000H
	DB	000H
	DB	000H
	DB	000H
	DB	000H
	DB	000H
	DB	000H
	DB	000H
	DB	000H
	DB	000H
	DB	000H
	DB	000H
	DB	000H
	DB	000H
	DB	000H
	DB	000H
	DB	000H
	DB	000H
	DB	000H
	DB	000H
	DB	000H
	DB	000H
	DB	000H
	DB	000H
	DB	000H
	DB	000H
	DB	00FH
	DB	070H
	DB	019H
	DB	090H
	DB	030H
	DB	0C0H
	DB	030H
	DB	0C0H
	DB	030H
	DB	0C0H
	DB	019H
	DB	080H
	DB	01FH
	DB	000H
	DB	030H
	DB	000H
	DB	03EH
	DB	000H
	DB	01FH
	DB	0C0H
	DB	060H
	DB	060H
	DB	060H
	DB	060H
	DB	070H
	DB	0E0H
	DB	01FH
	DB	080H
	DB	000H
	DB	000H
	DB	000H
	DB	000H
	DB	000H
	DB	000H
	DB	000H
	DB	000H
	DB	010H
	DB	000H
	DB	070H
	DB	000H
	DB	030H
	DB	000H
	DB	030H
	DB	000H
	DB	030H
	DB	000H
	DB	030H
	DB	000H
	DB	037H
	DB	080H
	DB	038H
	DB	0C0H
	DB	030H
	DB	0C0H
	DB	030H
	DB	0C0H
	DB	030H
	DB	0C0H
	DB	030H
	DB	0C0H
	DB	030H
	DB	0C0H
	DB	030H
	DB	0C0H
	DB	030H
	DB	0C0H
	DB	030H
	DB	0C0H
	DB	079H
	DB	0E0H
	DB	000H
	DB	000H
	DB	000H
	DB	000H
	DB	000H
	DB	000H
	DB	000H
	DB	000H
	DB	000H
	DB	000H
	DB	000H
	DB	000H
	DB	000H
	DB	000H
	DB	000H
	DB	000H
	DB	006H
	DB	000H
	DB	006H
	DB	000H
	DB	000H
	DB	000H
	DB	000H
	DB	000H
	DB	000H
	DB	000H
	DB	03EH
	DB	000H
	DB	006H
	DB	000H
	DB	006H
	DB	000H
	DB	006H
	DB	000H
	DB	006H
	DB	000H
	DB	006H
	DB	000H
	DB	006H
	DB	000H
	DB	006H
	DB	000H
	DB	006H
	DB	000H
	DB	006H
	DB	000H
	DB	03FH
	DB	0C0H
	DB	000H
	DB	000H
	DB	000H
	DB	000H
	DB	000H
	DB	000H
	DB	000H
	DB	000H
	DB	000H
	DB	000H
	DB	000H
	DB	000H
	DB	000H
	DB	000H
	DB	000H
	DB	000H
	DB	001H
	DB	080H
	DB	001H
	DB	080H
	DB	000H
	DB	000H
	DB	000H
	DB	000H
	DB	000H
	DB	000H
	DB	00FH
	DB	080H
	DB	001H
	DB	080H
	DB	001H
	DB	080H
	DB	001H
	DB	080H
	DB	001H
	DB	080H
	DB	001H
	DB	080H
	DB	001H
	DB	080H
	DB	001H
	DB	080H
	DB	001H
	DB	080H
	DB	001H
	DB	080H
	DB	001H
	DB	080H
	DB	001H
	DB	080H
	DB	033H
	DB	000H
	DB	03EH
	DB	000H
	DB	000H
	DB	000H
	DB	000H
	DB	000H
	DB	000H
	DB	000H
	DB	000H
	DB	000H
	DB	010H
	DB	000H
	DB	070H
	DB	000H
	DB	030H
	DB	000H
	DB	030H
	DB	000H
	DB	030H
	DB	000H
	DB	030H
	DB	000H
	DB	033H
	DB	0C0H
	DB	031H
	DB	000H
	DB	033H
	DB	000H
	DB	032H
	DB	000H
	DB	036H
	DB	000H
	DB	03EH
	DB	000H
	DB	03BH
	DB	000H
	DB	033H
	DB	000H
	DB	031H
	DB	080H
	DB	031H
	DB	080H
	DB	079H
	DB	0E0H
	DB	000H
	DB	000H
	DB	000H
	DB	000H
	DB	000H
	DB	000H
	DB	000H
	DB	000H
	DB	000H
	DB	000H
	DB	000H
	DB	000H
	DB	000H
	DB	000H
	DB	002H
	DB	000H
	DB	03EH
	DB	000H
	DB	006H
	DB	000H
	DB	006H
	DB	000H
	DB	006H
	DB	000H
	DB	006H
	DB	000H
	DB	006H
	DB	000H
	DB	006H
	DB	000H
	DB	006H
	DB	000H
	DB	006H
	DB	000H
	DB	006H
	DB	000H
	DB	006H
	DB	000H
	DB	006H
	DB	000H
	DB	006H
	DB	000H
	DB	006H
	DB	000H
	DB	006H
	DB	000H
	DB	03FH
	DB	0C0H
	DB	000H
	DB	000H
	DB	000H
	DB	000H
	DB	000H
	DB	000H
	DB	000H
	DB	000H
	DB	000H
	DB	000H
	DB	000H
	DB	000H
	DB	000H
	DB	000H
	DB	000H
	DB	000H
	DB	000H
	DB	000H
	DB	000H
	DB	000H
	DB	000H
	DB	000H
	DB	000H
	DB	000H
	DB	000H
	DB	000H
	DB	0EEH
	DB	0E0H
	DB	077H
	DB	060H
	DB	066H
	DB	060H
	DB	066H
	DB	060H
	DB	066H
	DB	060H
	DB	066H
	DB	060H
	DB	066H
	DB	060H
	DB	066H
	DB	060H
	DB	066H
	DB	060H
	DB	066H
	DB	060H
	DB	0F7H
	DB	070H
	DB	000H
	DB	000H
	DB	000H
	DB	000H
	DB	000H
	DB	000H
	DB	000H
	DB	000H
	DB	000H
	DB	000H
	DB	000H
	DB	000H
	DB	000H
	DB	000H
	DB	000H
	DB	000H
	DB	000H
	DB	000H
	DB	000H
	DB	000H
	DB	000H
	DB	000H
	DB	000H
	DB	000H
	DB	000H
	DB	000H
	DB	073H
	DB	080H
	DB	03CH
	DB	0C0H
	DB	030H
	DB	0C0H
	DB	030H
	DB	0C0H
	DB	030H
	DB	0C0H
	DB	030H
	DB	0C0H
	DB	030H
	DB	0C0H
	DB	030H
	DB	0C0H
	DB	030H
	DB	0C0H
	DB	030H
	DB	0C0H
	DB	079H
	DB	0E0H
	DB	000H
	DB	000H
	DB	000H
	DB	000H
	DB	000H
	DB	000H
	DB	000H
	DB	000H
	DB	000H
	DB	000H
	DB	000H
	DB	000H
	DB	000H
	DB	000H
	DB	000H
	DB	000H
	DB	000H
	DB	000H
	DB	000H
	DB	000H
	DB	000H
	DB	000H
	DB	000H
	DB	000H
	DB	000H
	DB	000H
	DB	00FH
	DB	000H
	DB	019H
	DB	080H
	DB	030H
	DB	0C0H
	DB	060H
	DB	060H
	DB	060H
	DB	060H
	DB	060H
	DB	060H
	DB	060H
	DB	060H
	DB	060H
	DB	060H
	DB	030H
	DB	0C0H
	DB	030H
	DB	0C0H
	DB	00FH
	DB	000H
	DB	000H
	DB	000H
	DB	000H
	DB	000H
	DB	000H
	DB	000H
	DB	000H
	DB	000H
	DB	000H
	DB	000H
	DB	000H
	DB	000H
	DB	000H
	DB	000H
	DB	000H
	DB	000H
	DB	000H
	DB	000H
	DB	000H
	DB	000H
	DB	000H
	DB	000H
	DB	000H
	DB	000H
	DB	000H
	DB	000H
	DB	077H
	DB	080H
	DB	038H
	DB	0C0H
	DB	030H
	DB	060H
	DB	030H
	DB	060H
	DB	030H
	DB	060H
	DB	030H
	DB	060H
	DB	030H
	DB	060H
	DB	030H
	DB	060H
	DB	030H
	DB	0C0H
	DB	038H
	DB	0C0H
	DB	037H
	DB	080H
	DB	030H
	DB	000H
	DB	030H
	DB	000H
	DB	07CH
	DB	000H
	DB	000H
	DB	000H
	DB	000H
	DB	000H
	DB	000H
	DB	000H
	DB	000H
	DB	000H
	DB	000H
	DB	000H
	DB	000H
	DB	000H
	DB	000H
	DB	000H
	DB	000H
	DB	000H
	DB	000H
	DB	000H
	DB	000H
	DB	000H
	DB	01EH
	DB	040H
	DB	031H
	DB	0C0H
	DB	030H
	DB	0C0H
	DB	060H
	DB	0C0H
	DB	060H
	DB	0C0H
	DB	060H
	DB	0C0H
	DB	060H
	DB	0C0H
	DB	060H
	DB	0C0H
	DB	020H
	DB	0C0H
	DB	031H
	DB	0C0H
	DB	01EH
	DB	0C0H
	DB	000H
	DB	0C0H
	DB	000H
	DB	0C0H
	DB	003H
	DB	0E0H
	DB	000H
	DB	000H
	DB	000H
	DB	000H
	DB	000H
	DB	000H
	DB	000H
	DB	000H
	DB	000H
	DB	000H
	DB	000H
	DB	000H
	DB	000H
	DB	000H
	DB	000H
	DB	000H
	DB	000H
	DB	000H
	DB	000H
	DB	000H
	DB	0F9H
	DB	0E0H
	DB	01AH
	DB	060H
	DB	01CH
	DB	000H
	DB	018H
	DB	000H
	DB	018H
	DB	000H
	DB	018H
	DB	000H
	DB	018H
	DB	000H
	DB	018H
	DB	000H
	DB	018H
	DB	000H
	DB	018H
	DB	000H
	DB	0FFH
	DB	000H
	DB	000H
	DB	000H
	DB	000H
	DB	000H
	DB	000H
	DB	000H
	DB	000H
	DB	000H
	DB	000H
	DB	000H
	DB	000H
	DB	000H
	DB	000H
	DB	000H
	DB	000H
	DB	000H
	DB	000H
	DB	000H
	DB	000H
	DB	000H
	DB	000H
	DB	000H
	DB	000H
	DB	000H
	DB	000H
	DB	000H
	DB	00FH
	DB	0E0H
	DB	018H
	DB	060H
	DB	030H
	DB	020H
	DB	030H
	DB	000H
	DB	01CH
	DB	000H
	DB	00FH
	DB	080H
	DB	001H
	DB	0C0H
	DB	020H
	DB	060H
	DB	020H
	DB	060H
	DB	030H
	DB	0C0H
	DB	03FH
	DB	080H
	DB	000H
	DB	000H
	DB	000H
	DB	000H
	DB	000H
	DB	000H
	DB	000H
	DB	000H
	DB	000H
	DB	000H
	DB	000H
	DB	000H
	DB	000H
	DB	000H
	DB	000H
	DB	000H
	DB	000H
	DB	000H
	DB	004H
	DB	000H
	DB	004H
	DB	000H
	DB	00CH
	DB	000H
	DB	00CH
	DB	000H
	DB	07FH
	DB	080H
	DB	00CH
	DB	000H
	DB	00CH
	DB	000H
	DB	00CH
	DB	000H
	DB	00CH
	DB	000H
	DB	00CH
	DB	000H
	DB	00CH
	DB	000H
	DB	00CH
	DB	000H
	DB	00CH
	DB	040H
	DB	00CH
	DB	040H
	DB	007H
	DB	080H
	DB	000H
	DB	000H
	DB	000H
	DB	000H
	DB	000H
	DB	000H
	DB	000H
	DB	000H
	DB	000H
	DB	000H
	DB	000H
	DB	000H
	DB	000H
	DB	000H
	DB	000H
	DB	000H
	DB	000H
	DB	000H
	DB	000H
	DB	000H
	DB	000H
	DB	000H
	DB	000H
	DB	000H
	DB	010H
	DB	040H
	DB	071H
	DB	0C0H
	DB	030H
	DB	0C0H
	DB	030H
	DB	0C0H
	DB	030H
	DB	0C0H
	DB	030H
	DB	0C0H
	DB	030H
	DB	0C0H
	DB	030H
	DB	0C0H
	DB	030H
	DB	0C0H
	DB	030H
	DB	0C0H
	DB	039H
	DB	0E0H
	DB	01EH
	DB	080H
	DB	000H
	DB	000H
	DB	000H
	DB	000H
	DB	000H
	DB	000H
	DB	000H
	DB	000H
	DB	000H
	DB	000H
	DB	000H
	DB	000H
	DB	000H
	DB	000H
	DB	000H
	DB	000H
	DB	000H
	DB	000H
	DB	000H
	DB	000H
	DB	000H
	DB	000H
	DB	000H
	DB	000H
	DB	000H
	DB	000H
	DB	07CH
	DB	0F0H
	DB	038H
	DB	060H
	DB	018H
	DB	040H
	DB	018H
	DB	040H
	DB	00CH
	DB	080H
	DB	00CH
	DB	080H
	DB	00CH
	DB	080H
	DB	007H
	DB	000H
	DB	007H
	DB	000H
	DB	007H
	DB	000H
	DB	002H
	DB	000H
	DB	000H
	DB	000H
	DB	000H
	DB	000H
	DB	000H
	DB	000H
	DB	000H
	DB	000H
	DB	000H
	DB	000H
	DB	000H
	DB	000H
	DB	000H
	DB	000H
	DB	000H
	DB	000H
	DB	000H
	DB	000H
	DB	000H
	DB	000H
	DB	000H
	DB	000H
	DB	000H
	DB	000H
	DB	000H
	DB	000H
	DB	0F7H
	DB	0B0H
	DB	063H
	DB	020H
	DB	063H
	DB	020H
	DB	067H
	DB	020H
	DB	037H
	DB	020H
	DB	035H
	DB	0C0H
	DB	039H
	DB	0C0H
	DB	039H
	DB	0C0H
	DB	039H
	DB	0C0H
	DB	010H
	DB	080H
	DB	010H
	DB	080H
	DB	000H
	DB	000H
	DB	000H
	DB	000H
	DB	000H
	DB	000H
	DB	000H
	DB	000H
	DB	000H
	DB	000H
	DB	000H
	DB	000H
	DB	000H
	DB	000H
	DB	000H
	DB	000H
	DB	000H
	DB	000H
	DB	000H
	DB	000H
	DB	000H
	DB	000H
	DB	000H
	DB	000H
	DB	000H
	DB	000H
	DB	07DH
	DB	0E0H
	DB	018H
	DB	080H
	DB	019H
	DB	080H
	DB	00DH
	DB	000H
	DB	00EH
	DB	000H
	DB	006H
	DB	000H
	DB	007H
	DB	000H
	DB	00BH
	DB	000H
	DB	019H
	DB	080H
	DB	011H
	DB	0C0H
	DB	07BH
	DB	0E0H
	DB	000H
	DB	000H
	DB	000H
	DB	000H
	DB	000H
	DB	000H
	DB	000H
	DB	000H
	DB	000H
	DB	000H
	DB	000H
	DB	000H
	DB	000H
	DB	000H
	DB	000H
	DB	000H
	DB	000H
	DB	000H
	DB	000H
	DB	000H
	DB	000H
	DB	000H
	DB	000H
	DB	000H
	DB	000H
	DB	000H
	DB	07DH
	DB	0E0H
	DB	038H
	DB	080H
	DB	018H
	DB	080H
	DB	018H
	DB	080H
	DB	00DH
	DB	000H
	DB	00DH
	DB	000H
	DB	00DH
	DB	000H
	DB	006H
	DB	000H
	DB	006H
	DB	000H
	DB	002H
	DB	000H
	DB	004H
	DB	000H
	DB	004H
	DB	000H
	DB	028H
	DB	000H
	DB	038H
	DB	000H
	DB	000H
	DB	000H
	DB	000H
	DB	000H
	DB	000H
	DB	000H
	DB	000H
	DB	000H
	DB	000H
	DB	000H
	DB	000H
	DB	000H
	DB	000H
	DB	000H
	DB	000H
	DB	000H
	DB	000H
	DB	000H
	DB	000H
	DB	000H
	DB	03FH
	DB	0C0H
	DB	021H
	DB	080H
	DB	023H
	DB	080H
	DB	003H
	DB	000H
	DB	007H
	DB	000H
	DB	006H
	DB	000H
	DB	00EH
	DB	000H
	DB	00CH
	DB	020H
	DB	01CH
	DB	020H
	DB	018H
	DB	060H
	DB	03FH
	DB	0C0H
	DB	000H
	DB	000H
	DB	000H
	DB	000H
	DB	000H
	DB	000H
	DB  000H,000H,000H,000H,000H,000H,000H,000H,000H,000H
	DB  000H,000H,000H,000H,000H,000H,000H,000H,000H,000H
	DB  000H,000H,000H,000H,000H,000H,000H,000H,000H,000H
	DB  000H,000H,000H,000H,000H,000H,000H,000H,000H,000H
	DB  000H,000H,000H,000H,000H,000H,000H,000H,000H,000H
	DB  000H,000H,000H,000H,000H,000H,000H,000H,000H,000H
	DB  000H,000H,000H,000H,000H,000H,000H,000H,000H,000H
	DB  000H,000H,000H,000H,000H,000H,000H,000H,000H,000H
	DB  000H,000H,000H,000H,000H,000H,000H,000H,000H,000H
	DB  000H,000H,000H,000H,000H,000H,000H,000H,000H,000H
	DB  000H,000H,000H,000H,000H,000H,000H,000H,000H,000H
	DB  000H,000H,000H,000H,000H,000H,000H,000H,000H,000H
	DB  000H,000H,000H,000H,000H,000H,000H,000H,000H,000H
	DB  000H,000H,000H,000H,000H,000H,000H,000H,000H,000H
	DB  000H,000H,000H,000H,000H,000H,000H,000H,000H,000H
	DB  000H,000H,000H,000H,000H,000H,000H,000H,000H,000H
	DB  000H,000H,000H,000H,000H,000H,000H,000H,000H,000H
	DB  000H,000H,000H,000H,000H,000H,000H,000H,000H,000H
	DB  000H,000H,000H,000H,000H,000H,000H,000H,000H,000H
	DB  000H,000H,000H,000H,000H,000H,000H,000H,000H,000H
	DB  000H,000H,000H,000H,000H,000H,000H,000H,000H,000H
	DB  000H,000H,000H,000H,000H,000H,000H,000H,000H,000H
	DB  000H,000H,000H,000H,000H,000H,000H,000H,000H,000H
	DB  000H,000H,000H,000H,000H,000H,000H,000H,000H,000H

_?ix1000:
	DB	0FFH
	DW	hz16 + 0
	DB	0FFH
	DW	hz24 + 0
	DB	0FFH
	DW	hz32 + 0


	RSEG  ?C_INITSEG
	DB	010H
	DB	colors
	DW	0F800H
	DW	007E0H
	DW	0001FH
	DW	0FFE0H
	DW	00000H
	DW	007FFH
	DW	0F81FH
	DW	0FFFFH

; //#include <reg52.h>
; #include "STC_NEW_8051.H"
; #include"head.h"        //IO define
; 
; #include"s6d0154_drv.h" //_24TFT-OK  
; 
; //#include"picture.h"
; #include"chinese.h"
; #include"char.h"
; //------------------------------------------------------------------
; uint colors[]={
; //   0      1      2      3      4      5      6      7
; 0xf800,0x07e0,0x001f,0xffe0,0x0000,0x07ff,0xf81f,0xffff  //
; //                                     
; };
; //******************************************************************
; //  
; //------------------------------------------------------------------
; void delayms(unsigned int tt) //0.5

	RSEG  ?PR?_delayms?S6D0154
_delayms:
	USING	0
			; SOURCE LINE # 19
;---- Variable 'j?042' assigned to Register 'R5' ----
;---- Variable 'tt?040' assigned to Register 'R6/R7' ----
; {
			; SOURCE LINE # 20
?C0001:
;     unsigned char i;
; 	unsigned char j;
;     while(tt>0)
			; SOURCE LINE # 23
	SETB 	C
	MOV  	A,R7
	SUBB 	A,#00H
	MOV  	A,R6
	SUBB 	A,#00H
	JC   	?C0009
;     {
			; SOURCE LINE # 24
;         tt--;
			; SOURCE LINE # 25
	MOV  	A,R7
	DEC  	R7
	JNZ  	?C0103
	DEC  	R6
?C0103:
;         for(j=0;j<5;j++)
			; SOURCE LINE # 26
	CLR  	A
	MOV  	R5,A
?C0003:
	MOV  	A,R5
	CLR  	C
	SUBB 	A,#05H
	JNC  	?C0001
; 	    {
			; SOURCE LINE # 27
; 		    for(i=0;i<168;i++)
			; SOURCE LINE # 28
;---- Variable 'i?041' assigned to Register 'R4' ----
	CLR  	A
	MOV  	R4,A
?C0006:
; 			{
			; SOURCE LINE # 29
; 			}
			; SOURCE LINE # 30
	INC  	R4
	CJNE 	R4,#0A8H,?C0006
;         }
			; SOURCE LINE # 31
?C0005:
	INC  	R5
	SJMP 	?C0003
;     }
			; SOURCE LINE # 32
; }
			; SOURCE LINE # 33
?C0009:
	RET  	
; END OF _delayms

; /*
; void delay(long tt)
; {
;     while(tt>0)
;     {
;         tt--;
;     }
; }
; */
; void Write_DATA(unsigned int i,unsigned int j)

	RSEG  ?PR?_Write_DATA?S6D0154
L?0127:
	USING	0
L?0128:
	MOV  	R5,#0FFH
	MOV  	R7,#0FFH
L?0129:
	MOV  	R4,#00H
	MOV  	R6,#00H
_Write_DATA:
			; SOURCE LINE # 43
;---- Variable 'j?144' assigned to Register 'R4/R5' ----
;---- Variable 'i?143' assigned to Register 'R6/R7' ----
; {
			; SOURCE LINE # 44
;     //8080 interface
;     LCD_CS = 0;
			; SOURCE LINE # 46
	CLR  	LCD_CS
; 	LCD_DC = 1;
			; SOURCE LINE # 47
	SETB 	LCD_DC
; 	LCD_RD = 1;
			; SOURCE LINE # 48
	SETB 	LCD_RD
; 	P0  = j;
			; SOURCE LINE # 49
	MOV  	P0,R5
; 	P2  = i;
			; SOURCE LINE # 50
	MOV  	P2,R7
; 	LCD_WR = 0;
			; SOURCE LINE # 51
	CLR  	LCD_WR
; 	LCD_WR = 1;
			; SOURCE LINE # 52
	SETB 	LCD_WR
; 	LCD_CS = 1;
			; SOURCE LINE # 53
	SETB 	LCD_CS
; }
			; SOURCE LINE # 54
	RET  	
; END OF _Write_DATA

; /*
; void Write_DAT_18(unsigned int i,unsigned int j,unsigned int k)
; {
;     //8080 interface
;     CS0 = 0;
; 	DC0 = 1;
; 	RD0 = 1;
; 	P2  = i;
; 	P0  = j;
; 	WR0 = 0;
; 	WR0 = 1;
; 	P2  = k;
; 	WR0 = 0;
; 	WR0 = 1;
; 	CS0 = 1;
; }
; */
; void Write_COMD(unsigned int i,unsigned int j)

	RSEG  ?PR?_Write_COMD?S6D0154
L?0133:
	USING	0
	MOV  	R5,#022H
L?0134:
	MOV  	R4,#00H
	CLR  	A
	MOV  	R7,A
	MOV  	R6,A
_Write_COMD:
			; SOURCE LINE # 72
;---- Variable 'j?246' assigned to Register 'R4/R5' ----
;---- Variable 'i?245' assigned to Register 'R6/R7' ----
; {
			; SOURCE LINE # 73
; 	//8080 interface
;     LCD_CS = 0;  
			; SOURCE LINE # 75
	CLR  	LCD_CS
;     LCD_RD = 1;
			; SOURCE LINE # 76
	SETB 	LCD_RD
;     LCD_DC = 0;
			; SOURCE LINE # 77
	CLR  	LCD_DC
; 	P0  = j;	 
			; SOURCE LINE # 78
	MOV  	P0,R5
; 	P2  = i;
			; SOURCE LINE # 79
	MOV  	P2,R7
; 	LCD_WR = 0;
			; SOURCE LINE # 80
	CLR  	LCD_WR
; 	LCD_WR = 1;
			; SOURCE LINE # 81
	SETB 	LCD_WR
; 	LCD_CS = 1;
			; SOURCE LINE # 82
	SETB 	LCD_CS
; }
			; SOURCE LINE # 83
	RET  	
; END OF _Write_COMD

; //******************************************************************
; //  
; //------------------------------------------------------------------
; void Display_Red(void)

	RSEG  ?PR?Display_Red?S6D0154
Display_Red:
	USING	0
			; SOURCE LINE # 87
; {  
			; SOURCE LINE # 88
;     int i,j,k=0;
			; SOURCE LINE # 89
	CLR  	A
	MOV  	k?349,A
	MOV  	k?349+01H,A
;      
; 	LCD_CS =0;  //
			; SOURCE LINE # 91
	CLR  	LCD_CS
; 	Address_set(0,0,239,319);
			; SOURCE LINE # 92
	MOV  	?_Address_set?BYTE+06H,#01H
	MOV  	?_Address_set?BYTE+07H,#03FH
	MOV  	R3,#0EFH
	MOV  	R2,A
	LCALL	L?0123
;         
;     Write_COMD(0x00,0x22); 
			; SOURCE LINE # 94
	LCALL	L?0133
;     for(i=0;i<320;i++)
			; SOURCE LINE # 95
;---- Variable 'i?347' assigned to Register 'R2/R3' ----
	MOV  	R3,A
	MOV  	R2,A
?C0012:
;     {
			; SOURCE LINE # 96
;         for(j=0;j<240;j++)
			; SOURCE LINE # 97
;---- Variable 'j?348' assigned to Register 'DPTR' ----
	MOV  	DPTR,#00H
?C0015:
; 	    {
			; SOURCE LINE # 98
;             Write_DATA(0xf8,0x00);//data_out18(0xfc,0x00,0x00);
			; SOURCE LINE # 99
	CLR  	A
	MOV  	R5,A
	MOV  	R4,A
	MOV  	R7,#0F8H
	MOV  	R6,A
	LCALL	_Write_DATA
; 	    }
			; SOURCE LINE # 100
	INC  	DPTR
	MOV  	A,DPL
	XRL  	A,#0F0H
	ORL  	A,DPH
	JNZ  	?C0015
;     }
			; SOURCE LINE # 101
?C0014:
	INC  	R3
	CJNE 	R3,#00H,?C0104
	INC  	R2
?C0104:
	CJNE 	R2,#01H,?C0012
	CJNE 	R3,#040H,?C0012
; }
			; SOURCE LINE # 102
?C0018:
	RET  	
; END OF Display_Red

; void Display_Green(void)

	RSEG  ?PR?Display_Green?S6D0154
Display_Green:
	USING	0
			; SOURCE LINE # 103
; {  
			; SOURCE LINE # 104
;     int i,j;
;    
; 	LCD_CS =0;  //
			; SOURCE LINE # 107
; 	Address_set(0,0,239,319);
			; SOURCE LINE # 108
	LCALL	L?0121
;    
;     Write_COMD(0x00,0x22); 
			; SOURCE LINE # 110
	LCALL	L?0133
;     for(i=0;i<320;i++)
			; SOURCE LINE # 111
;---- Variable 'i?450' assigned to Register 'R2/R3' ----
	MOV  	R3,A
	MOV  	R2,A
?C0019:
;     {
			; SOURCE LINE # 112
;         for(j=0;j<240;j++)
			; SOURCE LINE # 113
;---- Variable 'j?451' assigned to Register 'DPTR' ----
	MOV  	DPTR,#00H
?C0022:
; 	    {
			; SOURCE LINE # 114
;             Write_DATA(0x07,0xe0);
			; SOURCE LINE # 115
	MOV  	R5,#0E0H
	MOV  	R7,#07H
	LCALL	L?0129
;             //Write_Data_18(0x03,0xf0,0x00);
;         }
			; SOURCE LINE # 117
	INC  	DPTR
	MOV  	A,DPL
	XRL  	A,#0F0H
	ORL  	A,DPH
	JNZ  	?C0022
;     }
			; SOURCE LINE # 118
?C0021:
	INC  	R3
	CJNE 	R3,#00H,?C0105
	INC  	R2
?C0105:
	CJNE 	R2,#01H,?C0019
	CJNE 	R3,#040H,?C0019
; }
			; SOURCE LINE # 119
?C0025:
	RET  	
; END OF Display_Green

; void Display_Blue(void)

	RSEG  ?PR?Display_Blue?S6D0154
Display_Blue:
	USING	0
			; SOURCE LINE # 120
; {  
			; SOURCE LINE # 121
;     int i,j;
;      
;     Write_COMD(0x00,0x20);
			; SOURCE LINE # 124
	MOV  	R5,#020H
	LCALL	L?0134
;     Write_DATA(0x00,0x00);
			; SOURCE LINE # 125
	MOV  	R5,A
	LCALL	_Write_DATA
;     Write_COMD(0x00,0x21);
			; SOURCE LINE # 126
	MOV  	R5,#021H
	LCALL	_Write_COMD
;     Write_DATA(0x00,0x00);
			; SOURCE LINE # 127
	MOV  	R5,A
	LCALL	_Write_DATA
;    
;     Write_COMD(0x00,0x22);
			; SOURCE LINE # 129
	MOV  	R5,#022H
	LCALL	_Write_COMD
;     for(i=0;i<320;i++)
			; SOURCE LINE # 130
;---- Variable 'i?552' assigned to Register 'R2/R3' ----
	MOV  	R3,A
	MOV  	R2,A
?C0026:
;     {
			; SOURCE LINE # 131
; 	    for(j=0;j<240;j++)
			; SOURCE LINE # 132
;---- Variable 'j?553' assigned to Register 'DPTR' ----
	MOV  	DPTR,#00H
?C0029:
;         {
			; SOURCE LINE # 133
; 		    Write_DATA(0x00,0x1f);
			; SOURCE LINE # 134
	MOV  	R5,#01FH
	MOV  	R4,#00H
	CLR  	A
	MOV  	R7,A
	MOV  	R6,A
	LCALL	_Write_DATA
;             //Write_Data_18(0x00,0x0f,0xc0);
;         }
			; SOURCE LINE # 136
	INC  	DPTR
	MOV  	A,DPL
	XRL  	A,#0F0H
	ORL  	A,DPH
	JNZ  	?C0029
;     }
			; SOURCE LINE # 137
?C0028:
	INC  	R3
	CJNE 	R3,#00H,?C0106
	INC  	R2
?C0106:
	CJNE 	R2,#01H,?C0026
	CJNE 	R3,#040H,?C0026
; }
			; SOURCE LINE # 138
?C0032:
	RET  	
; END OF Display_Blue

; void Display_White(void)

	RSEG  ?PR?Display_White?S6D0154
Display_White:
	USING	0
			; SOURCE LINE # 139
; {
			; SOURCE LINE # 140
;     int i,j;
;     
; 	LCD_CS =0;  //
			; SOURCE LINE # 143
; 	Address_set(0,0,239,319);
			; SOURCE LINE # 144
	LCALL	L?0121
;     for(i=0;i<320;i++)
			; SOURCE LINE # 145
;---- Variable 'i?654' assigned to Register 'R2/R3' ----
	CLR  	A
	MOV  	R3,A
	MOV  	R2,A
?C0033:
;     {
			; SOURCE LINE # 146
;         for(j=0;j<240;j++)
			; SOURCE LINE # 147
;---- Variable 'j?655' assigned to Register 'DPTR' ----
	MOV  	DPTR,#00H
?C0036:
; 	    {
			; SOURCE LINE # 148
;             Write_DATA(0xff,0xff);
			; SOURCE LINE # 149
	LCALL	L?0127
;             //Write_Data_18(0xff,0xff,0xc0);
;         }
			; SOURCE LINE # 151
	INC  	DPTR
	MOV  	A,DPL
	XRL  	A,#0F0H
	ORL  	A,DPH
	JNZ  	?C0036
;     }
			; SOURCE LINE # 152
?C0035:
	INC  	R3
	CJNE 	R3,#00H,?C0107
	INC  	R2
?C0107:
	CJNE 	R2,#01H,?C0033
	CJNE 	R3,#040H,?C0033
; }
			; SOURCE LINE # 153
?C0039:
	RET  	
; END OF Display_White

; void Display_Black(void)

	RSEG  ?PR?Display_Black?S6D0154
Display_Black:
	USING	0
			; SOURCE LINE # 154
; {  
			; SOURCE LINE # 155
;     int i,j,k;
;      
; 	LCD_CS =0;  //
			; SOURCE LINE # 158
; 	Address_set(0,0,239,319);
			; SOURCE LINE # 159
	LCALL	L?0122
;     for(i=0;i<240;i++)
			; SOURCE LINE # 160
;---- Variable 'i?756' assigned to Register 'R2/R3' ----
	CLR  	A
	MOV  	R3,A
	MOV  	R2,A
?C0040:
;     {
			; SOURCE LINE # 161
;         Write_DATA(0xff,0xff);
			; SOURCE LINE # 162
	LCALL	L?0127
;         //Write_DATA_18(0xff,0xff,0xc0);
;     }
			; SOURCE LINE # 164
	INC  	R3
	CJNE 	R3,#00H,?C0108
	INC  	R2
?C0108:
	MOV  	A,R3
	XRL  	A,#0F0H
	ORL  	A,R2
	JNZ  	?C0040
?C0041:
;     //---------------------------------
;     for(i=0;i<318;i++)  //
			; SOURCE LINE # 166
	CLR  	A
	MOV  	R2,A
	MOV  	R3,A
?C0043:
;     {
			; SOURCE LINE # 167
;         for(k=0;k<1;k++)
			; SOURCE LINE # 168
;---- Variable 'k?758' assigned to Register 'DPTR' ----
	MOV  	DPTR,#00H
?C0046:
; 	    {
			; SOURCE LINE # 169
;             Write_DATA(0xff,0xff);
			; SOURCE LINE # 170
	LCALL	L?0128
; 	        //WRITE_DATA_18(0xff,0xff,0xc0);
; 	    }
			; SOURCE LINE # 172
	INC  	DPTR
	MOV  	A,DPL
	XRL  	A,#01H
	ORL  	A,DPH
	JNZ  	?C0046
?C0047:
; 	    for(j=0;j<238;j++)
			; SOURCE LINE # 173
	CLR  	A
	MOV  	j?757,A
	MOV  	j?757+01H,A
?C0049:
; 	    {
			; SOURCE LINE # 174
; 		    Write_DATA(0x00,0x00);
			; SOURCE LINE # 175
	CLR  	A
	MOV  	R5,A
	MOV  	R4,A
	MOV  	R7,A
	MOV  	R6,A
	LCALL	_Write_DATA
; 		    //Write_DATA_18(0x00,0x00,0x00);
; 	    }
			; SOURCE LINE # 177
	INC  	j?757+01H
	MOV  	A,j?757+01H
	JNZ  	?C0109
	INC  	j?757
?C0109:
	CLR  	C
	SUBB 	A,#0EEH
	MOV  	A,j?757
	XRL  	A,#080H
	SUBB 	A,#080H
	JC   	?C0049
?C0050:
; 	    for(k=0;k<1;k++)
			; SOURCE LINE # 178
	CLR  	A
	MOV  	DPH,A
	MOV  	DPL,A
?C0052:
; 	    {
			; SOURCE LINE # 179
; 	        Write_DATA(0xff,0xff);
			; SOURCE LINE # 180
	LCALL	L?0128
;             //Write_DATA_18(0xff,0xff,0xc0);
; 	    }
			; SOURCE LINE # 182
	INC  	DPTR
	MOV  	A,DPL
	XRL  	A,#01H
	ORL  	A,DPH
	JNZ  	?C0052
;     }
			; SOURCE LINE # 183
?C0045:
	INC  	R3
	CJNE 	R3,#00H,?C0110
	INC  	R2
?C0110:
	CJNE 	R2,#01H,?C0043
	CJNE 	R3,#03EH,?C0043
?C0044:
;     //---------------------------------
;     for(i=0;i<240;i++)
			; SOURCE LINE # 185
	CLR  	A
	MOV  	R2,A
	MOV  	R3,A
?C0055:
;     {
			; SOURCE LINE # 186
;         Write_DATA(0xff,0xff);
			; SOURCE LINE # 187
	LCALL	L?0128
;         //Write_Data_18(0xff,0xff,0xc0);
;     }
			; SOURCE LINE # 189
	INC  	R3
	CJNE 	R3,#00H,?C0111
	INC  	R2
?C0111:
	MOV  	A,R3
	XRL  	A,#0F0H
	ORL  	A,R2
	JNZ  	?C0055
; }
			; SOURCE LINE # 190
?C0058:
	RET  	
; END OF Display_Black

; //******************************************************************
; //  (240*80dot)
; //------------------------------------------------------------------
; /*void Display_Image(void)
; {
;     unsigned char i,j,t;
;    
; 	LCD_CS =0;  //
; 	Address_set(0,0,239,319);
;     LCD_DC=1;
;     for(t=4;t!=0;t--)  //4->240x320
;     {
; #pragma asm
; 		mov DPTR, #Image
; #pragma endasm
; //        unsigned int  k=0;
;         
;         for(j=80;j!=0;j--)
;         {
;             for(i=240;i!=0;i--)
;             {
;                 LCD_WR = 0;
; #pragma asm
; 		clr A
; 		movc A, @A+DPTR
; 		mov P2, A
; 		inc DPTR
; 		clr A
; 		movc A, @A+DPTR
; 		mov P0, A
; 		inc DPTR
; #pragma endasm
;                 LCD_WR = 1;
; //                Write_DATA(Image[k++],Image[k++]);
;             }
;         }
;     }
; }*/
; //******************************************************************
; //  
; //------------------------------------------------------------------
; void LCD_Writ_Bus(char VH,char VL)      //

	RSEG  ?PR?_LCD_Writ_Bus?S6D0154
_LCD_Writ_Bus:
			; SOURCE LINE # 232
;---- Variable 'VL?860' assigned to Register 'R5' ----
;---- Variable 'VH?859' assigned to Register 'R7' ----
; {
			; SOURCE LINE # 233
;     LCD_DataPortH=VH;	  //P
			; SOURCE LINE # 234
	MOV  	P2,R7
; 	LCD_DataPortL=VL;	  //P	
			; SOURCE LINE # 235
	MOV  	P0,R5
; 	LCD_WR=0;
			; SOURCE LINE # 236
	CLR  	LCD_WR
; 	LCD_WR=1; 
			; SOURCE LINE # 237
	SETB 	LCD_WR
; }
			; SOURCE LINE # 238
	RET  	
; END OF _LCD_Writ_Bus

; void LCD_Write_COM(char VH,char VL)	    //

	RSEG  ?PR?_LCD_Write_COM?S6D0154
L?0124:
	USING	0
	MOV  	R5,#01CH
L?0125:
	LCALL	_LCD_Write_DATA
	MOV  	R7,#02CH
	MOV  	R6,#01H
L?0126:
	LCALL	_delayms
	MOV  	R5,#011H
	CLR  	A
	MOV  	R7,A
_LCD_Write_COM:
			; SOURCE LINE # 239
;---- Variable 'VL?962' assigned to Register 'R5' ----
;---- Variable 'VH?961' assigned to Register 'R7' ----
; {	
			; SOURCE LINE # 240
;     LCD_DC=0;
			; SOURCE LINE # 241
	CLR  	LCD_DC
; 	LCD_Writ_Bus(VH,VL);
			; SOURCE LINE # 242
	LJMP 	_LCD_Writ_Bus
; END OF _LCD_Write_COM

; }
; void LCD_Write_DATA(char VH,char VL)	//

	RSEG  ?PR?_LCD_Write_DATA?S6D0154
L?0130:
	USING	0
L?0131:
	MOV  	R7,A
L?0132:
	LCALL	_LCD_Write_COM
	MOV  	R5,A
_LCD_Write_DATA:
			; SOURCE LINE # 244
;---- Variable 'VL?1064' assigned to Register 'R5' ----
;---- Variable 'VH?1063' assigned to Register 'R7' ----
; {
			; SOURCE LINE # 245
;     LCD_DC=1;
			; SOURCE LINE # 246
	SETB 	LCD_DC
; 	LCD_Writ_Bus(VH,VL);
			; SOURCE LINE # 247
	LJMP 	_LCD_Writ_Bus
; END OF _LCD_Write_DATA

; }
; //******************************************************************
; //  
; //------------------------------------------------------------------
; void Pant(char VH,char VL)

	RSEG  ?PR?_Pant?S6D0154
_Pant:
	USING	0
			; SOURCE LINE # 252
	MOV  	VH?1165,R7
	MOV  	VL?1166,R5
; {
			; SOURCE LINE # 253
; 	unsigned char i;
; 	unsigned char j;
; 	
; 	LCD_CS =0;  //
			; SOURCE LINE # 257
; 	Address_set(0,0,239,319);
			; SOURCE LINE # 258
	LCALL	L?0122
;     LCD_DataPortH=VH;	  //P
			; SOURCE LINE # 259
	MOV  	P2,VH?1165
; 	LCD_DataPortL=VL;	  //P	
			; SOURCE LINE # 260
	MOV  	P0,VL?1166
;     LCD_DC=1;
			; SOURCE LINE # 261
	SETB 	LCD_DC
;     for(i=160;i!=0;i--)
			; SOURCE LINE # 262
;---- Variable 'i?1167' assigned to Register 'R7' ----
	MOV  	R7,#0A0H
?C0062:
; 	{
			; SOURCE LINE # 263
;         for (j=240;j!=0;j--)
			; SOURCE LINE # 264
;---- Variable 'j?1168' assigned to Register 'R6' ----
	MOV  	R6,#0F0H
?C0065:
;         {
			; SOURCE LINE # 265
;             LCD_WR=0;
			; SOURCE LINE # 266
	CLR  	LCD_WR
;             LCD_WR=1; 
			; SOURCE LINE # 267
	SETB 	LCD_WR
;             LCD_WR=0;
			; SOURCE LINE # 268
	CLR  	LCD_WR
;             LCD_WR=1; 
			; SOURCE LINE # 269
	SETB 	LCD_WR
; 	    }
			; SOURCE LINE # 270
	DJNZ 	R6,?C0065
;     }
			; SOURCE LINE # 271
?C0064:
	DJNZ 	R7,?C0062
?C0063:
;     LCD_CS =1;  //
			; SOURCE LINE # 272
	SETB 	LCD_CS
; }
			; SOURCE LINE # 273
	RET  	
; END OF _Pant

; void Address_set(unsigned int x1,unsigned int y1,unsigned int x2,unsigned int y2)

	RSEG  ?PR?_Address_set?S6D0154
L?0121:
	USING	0
L?0122:
	CLR  	LCD_CS
	MOV  	?_Address_set?BYTE+06H,#01H
	MOV  	?_Address_set?BYTE+07H,#03FH
	MOV  	R3,#0EFH
	MOV  	R2,#00H
	CLR  	A
L?0123:
	MOV  	R5,A
	MOV  	R4,A
	MOV  	R7,A
	MOV  	R6,A
_Address_set:
	USING	0
			; SOURCE LINE # 274
	MOV  	x1?1269,R6
	MOV  	x1?1269+01H,R7
	MOV  	y1?1270,R4
	MOV  	y1?1270+01H,R5
;---- Variable 'x2?1271' assigned to Register 'R2/R3' ----
; {
			; SOURCE LINE # 275
; 
;     LCD_Write_COM(0x00,0x20);LCD_Write_DATA(x1>>8,x1);  //X
			; SOURCE LINE # 277
	MOV  	R5,#020H
	CLR  	A
	MOV  	R7,A
	LCALL	_LCD_Write_COM
	MOV  	A,x1?1269
	MOV  	R7,A
	MOV  	R5,x1?1269+01H
	LCALL	_LCD_Write_DATA
;     LCD_Write_COM(0x00,0x21);LCD_Write_DATA(y1>>8,y1);  //Y
			; SOURCE LINE # 278
	MOV  	R5,#021H
	CLR  	A
	MOV  	R7,A
	LCALL	_LCD_Write_COM
	MOV  	A,y1?1270
	MOV  	R7,A
	MOV  	R5,y1?1270+01H
	LCALL	_LCD_Write_DATA
; 		 
;     LCD_Write_COM(0x00,0x37);LCD_Write_DATA(x1>>8,x1);  //X
			; SOURCE LINE # 280
	MOV  	R5,#037H
	CLR  	A
	MOV  	R7,A
	LCALL	_LCD_Write_COM
	MOV  	A,x1?1269
	MOV  	R7,A
	MOV  	R5,x1?1269+01H
	LCALL	_LCD_Write_DATA
; 	LCD_Write_COM(0x00,0x39);LCD_Write_DATA(y1>>8,y1);  //Y
			; SOURCE LINE # 281
	MOV  	R5,#039H
	CLR  	A
	MOV  	R7,A
	LCALL	_LCD_Write_COM
	MOV  	A,y1?1270
	MOV  	R7,A
	MOV  	R5,y1?1270+01H
	LCALL	_LCD_Write_DATA
;     LCD_Write_COM(0x00,0x36);LCD_Write_DATA(x2>>8,x2);  //X
			; SOURCE LINE # 282
	MOV  	R5,#036H
	CLR  	A
	MOV  	R7,A
	LCALL	_LCD_Write_COM
	MOV  	R7,AR2
	MOV  	R5,AR3
	LCALL	_LCD_Write_DATA
; 	LCD_Write_COM(0x00,0x38);LCD_Write_DATA(y2>>8,y2);  //Y
			; SOURCE LINE # 283
	MOV  	R5,#038H
	MOV  	R7,A
	LCALL	_LCD_Write_COM
	MOV  	A,y2?1272
	MOV  	R7,A
	MOV  	R5,y2?1272+01H
	LCALL	_LCD_Write_DATA
; 
; 	LCD_Write_COM(0x00,0x22);										 
			; SOURCE LINE # 285
	MOV  	R5,#022H
	CLR  	A
	MOV  	R7,A
	LJMP 	_LCD_Write_COM
; END OF _Address_set

; }
; //******************************************************************
; //  
; //------------------------------------------------------------------
; void ChineseChar(uint x,uint y,int size,uint For_color,uint Bk_color ,char c)

	RSEG  ?PR?_ChineseChar?S6D0154
_ChineseChar:
	USING	0
			; SOURCE LINE # 290
	MOV  	x?1373,R6
	MOV  	x?1373+01H,R7
	MOV  	y?1374,R4
	MOV  	y?1374+01H,R5
	MOV  	size?1375,R2
	MOV  	size?1375+01H,R3
; {
			; SOURCE LINE # 291
;     int e,i,j;
;     int  ed;
;    
;     uint  ncols;
;     uint  nrows;
;     uint  nbytes;
; 
;     uchar *pfont;
;     uchar *pchar;
;     uchar *fonttable[]={(uchar *)hz16,(uchar *)hz24 , (uchar *)hz32};
			; SOURCE LINE # 301
	MOV  	R0,#LOW (fonttable?1388)
	MOV  	R4,#HIGH (fonttable?1388)
	MOV  	R5,#00H
	MOV  	R3,#0FFH
	MOV  	R2,#HIGH (_?ix1000)
	MOV  	R1,#LOW (_?ix1000)
	MOV  	R6,#00H
	MOV  	R7,#09H
	LCALL	?C?COPY
;    
;     pfont=(uchar *)fonttable[size];
			; SOURCE LINE # 303
	MOV  	A,size?1375+01H
	MOV  	B,#03H
	MUL  	AB
	ADD  	A,#LOW (fonttable?1388)
	MOV  	R0,A
	MOV  	AR3,@R0
	INC  	R0
	MOV  	A,@R0
	MOV  	R2,A
	INC  	R0
	MOV  	A,@R0
	MOV  	R1,A
;---- Variable 'pfont?1386' assigned to Register 'R1/R2/R3' ----
; 
;     if(size==0)
			; SOURCE LINE # 305
	MOV  	A,size?1375+01H
	ORL  	A,size?1375
	JNZ  	?C0070
;     {
			; SOURCE LINE # 306
;         ncols =16-1;
			; SOURCE LINE # 307
	MOV  	ncols?1383,A
	MOV  	ncols?1383+01H,#0FH
;         nrows =16-1;
			; SOURCE LINE # 308
	MOV  	nrows?1384,A
	MOV  	nrows?1384+01H,#0FH
;         nbytes =32;	 //(16*16)/8
			; SOURCE LINE # 309
	MOV  	nbytes?1385,A
	MOV  	nbytes?1385+01H,#020H
;     }
			; SOURCE LINE # 310
	SJMP 	?C0071
?C0070:
;     else
;     {    
			; SOURCE LINE # 312
;         if(size==1)
			; SOURCE LINE # 313
	MOV  	A,size?1375+01H
	XRL  	A,#01H
	ORL  	A,size?1375
	JNZ  	?C0072
;         {
			; SOURCE LINE # 314
;             ncols =24-1;
			; SOURCE LINE # 315
	MOV  	ncols?1383,A
	MOV  	ncols?1383+01H,#017H
;             nrows =24-1;
			; SOURCE LINE # 316
	MOV  	nrows?1384,A
	MOV  	nrows?1384+01H,#017H
;             nbytes =72;  //(24*24)/8
			; SOURCE LINE # 317
	MOV  	nbytes?1385,A
	MOV  	nbytes?1385+01H,#048H
;         }
			; SOURCE LINE # 318
	SJMP 	?C0071
?C0072:
;         else
;         {
			; SOURCE LINE # 320
;             if(size==2)
			; SOURCE LINE # 321
	MOV  	A,size?1375+01H
	XRL  	A,#02H
	ORL  	A,size?1375
	JNZ  	?C0071
;             {
			; SOURCE LINE # 322
;                 ncols =32-1;
			; SOURCE LINE # 323
	MOV  	ncols?1383,A
	MOV  	ncols?1383+01H,#01FH
;                 nrows =32-1;
			; SOURCE LINE # 324
	MOV  	nrows?1384,A
	MOV  	nrows?1384+01H,#01FH
;                 nbytes =132;   //(32*32)/8
			; SOURCE LINE # 325
	MOV  	nbytes?1385,A
	MOV  	nbytes?1385+01H,#084H
;             }
			; SOURCE LINE # 326
;         }
			; SOURCE LINE # 327
;     }
			; SOURCE LINE # 328
?C0071:
;     pchar=pfont + (nbytes*(c-1));
			; SOURCE LINE # 329
	MOV  	R7,c?1378
	MOV  	A,R7
	RLC  	A
	SUBB 	A,ACC
	MOV  	R6,A
	MOV  	A,R7
	ADD  	A,#0FFH
	MOV  	R7,A
	MOV  	A,R6
	ADDC 	A,#0FFH
	MOV  	R6,A
	MOV  	R4,nbytes?1385
	MOV  	R5,nbytes?1385+01H
	LCALL	?C?IMUL
	MOV  	A,R1
	ADD  	A,R7
	MOV  	R1,A
	MOV  	A,R2
	ADDC 	A,R6
	MOV  	pchar?1387,R3
	MOV  	pchar?1387+01H,A
	MOV  	pchar?1387+02H,R1
; 
;     Address_set(x,  y, x+nrows,y+ncols);
			; SOURCE LINE # 331
	MOV  	A,x?1373+01H
	ADD  	A,nrows?1384+01H
	MOV  	R3,A
	MOV  	A,x?1373
	ADDC 	A,nrows?1384
	MOV  	R2,A
	MOV  	A,y?1374+01H
	ADD  	A,ncols?1383+01H
	MOV  	?_Address_set?BYTE+07H,A
	MOV  	A,y?1374
	ADDC 	A,ncols?1383
	MOV  	?_Address_set?BYTE+06H,A
	MOV  	R5,y?1374+01H
	MOV  	R4,y?1374
	MOV  	R7,x?1373+01H
	MOV  	R6,x?1373
	LCALL	_Address_set
;     //---------------------------------
;     for(i=0;i<nbytes;i++)
			; SOURCE LINE # 333
	CLR  	A
	MOV  	i?1380,A
	MOV  	i?1380+01H,A
?C0075:
	CLR  	C
	MOV  	A,i?1380+01H
	SUBB 	A,nbytes?1385+01H
	MOV  	A,i?1380
	SUBB 	A,nbytes?1385
	JC   	$ + 5H
	LJMP 	?C0087
;     {
			; SOURCE LINE # 334
;         ed=*pchar++;
			; SOURCE LINE # 335
	MOV  	R3,pchar?1387
	INC  	pchar?1387+02H
	MOV  	A,pchar?1387+02H
	MOV  	R2,pchar?1387+01H
	JNZ  	?C0112
	INC  	pchar?1387+01H
?C0112:
	DEC  	A
	MOV  	R1,A
	LCALL	?C?CLDPTR
	MOV  	ed?1382,#00H
	MOV  	ed?1382+01H,A
;         if(size==0)
			; SOURCE LINE # 336
	MOV  	A,size?1375+01H
	ORL  	A,size?1375
	JNZ  	?C0078
;         {
			; SOURCE LINE # 337
;             if(i%2==0)
			; SOURCE LINE # 338
	MOV  	R6,i?1380
	MOV  	R7,i?1380+01H
	MOV  	R4,A
	MOV  	R5,#02H
	LCALL	?C?SIDIV
	MOV  	A,R5
	ORL  	A,R4
	JNZ  	?C0079
;                 e=8;
			; SOURCE LINE # 339
	MOV  	e?1379,A
	SJMP 	?C0118
?C0079:
;             else
;                 e=4;
			; SOURCE LINE # 341
	MOV  	e?1379,#00H
	MOV  	e?1379+01H,#04H
;         }
			; SOURCE LINE # 342
	SJMP 	?C0081
?C0078:
;         else
;             e=8;
			; SOURCE LINE # 344
	MOV  	e?1379,#00H
?C0118:
	MOV  	e?1379+01H,#08H
?C0081:
;         for(j=0;j<e;j++)
			; SOURCE LINE # 345
;---- Variable 'j?1381' assigned to Register 'R2/R3' ----
	CLR  	A
	MOV  	R3,A
	MOV  	R2,A
?C0082:
	CLR  	C
	MOV  	A,R3
	SUBB 	A,e?1379+01H
	MOV  	A,e?1379
	XRL  	A,#080H
	MOV  	R0,A
	MOV  	A,R2
	XRL  	A,#080H
	SUBB 	A,R0
	JNC  	?C0077
;         {//unsigned char temp;
			; SOURCE LINE # 346
;             if((ed>>j)&0x01)
			; SOURCE LINE # 347
	MOV  	R7,AR3
	MOV  	A,ed?1382+01H
	MOV  	R6,ed?1382
	MOV  	R0,AR7
	INC  	R0
	SJMP 	?C0114
?C0113:
	XCH  	A,R6
	MOV  	C,ACC.7
	RRC  	A
	XCH  	A,R6
	RRC  	A
?C0114:
	DJNZ 	R0,?C0113
	JNB  	ACC.0,?C0085
;             { 
			; SOURCE LINE # 348
;        	       //temp = For_color&0x00ff
; 	           LCD_Write_DATA(For_color>>8 , For_color  );  //textcolor
			; SOURCE LINE # 350
	MOV  	A,For_color?1376
	MOV  	R7,A
	MOV  	R5,For_color?1376+01H
; 	        }
			; SOURCE LINE # 351
	SJMP 	?C0119
?C0085:
;             else
;             {
			; SOURCE LINE # 353
;                 LCD_Write_DATA( Bk_color>>8 ,  Bk_color);  //backcolor
			; SOURCE LINE # 354
	MOV  	A,Bk_color?1377
	MOV  	R7,A
	MOV  	R5,Bk_color?1377+01H
?C0119:
	LCALL	_LCD_Write_DATA
; 	        }
			; SOURCE LINE # 355
;         }
			; SOURCE LINE # 356
?C0084:
	INC  	R3
	CJNE 	R3,#00H,?C0115
	INC  	R2
?C0115:
	SJMP 	?C0082
;     }
			; SOURCE LINE # 357
?C0077:
	INC  	i?1380+01H
	MOV  	A,i?1380+01H
	JNZ  	?C0116
	INC  	i?1380
?C0116:
	LJMP 	?C0075
; }
			; SOURCE LINE # 358
?C0087:
	RET  	
; END OF _ChineseChar

; //******************************************************************
; //  
; //------------------------------------------------------------------
; void LCD_ShowChar(uint x,uint y,uint For_color,uint Bk_color, char ch)

	RSEG  ?PR?_LCD_ShowChar?S6D0154
_LCD_ShowChar:
	USING	0
			; SOURCE LINE # 362
	MOV  	For_color?1491,R2
	MOV  	For_color?1491+01H,R3
;---- Variable 'y?1490' assigned to Register 'R4/R5' ----
;---- Variable 'x?1489' assigned to Register 'R6/R7' ----
; {       
			; SOURCE LINE # 363
;     uchar temp , Bytes;
;     uchar pos,t;
;     uint  CHAR_W,CHAR_H;
;    
;     //CHAR_W = 8;         //8*16
;     //CHAR_H = 16;
; 
;     CHAR_W = 16;         //16*24
			; SOURCE LINE # 371
	MOV  	CHAR_W?1498,#00H
	MOV  	CHAR_W?1498+01H,#010H
;     CHAR_H = 24;
			; SOURCE LINE # 372
	MOV  	CHAR_H?1499,#00H
	MOV  	CHAR_H?1499+01H,#018H
; 
;     if(x>(LCD_SIZE_X-CHAR_W)||y>(LCD_SIZE_Y-CHAR_H))
			; SOURCE LINE # 374
	CLR  	C
	MOV  	A,#0F0H
	SUBB 	A,CHAR_W?1498+01H
	MOV  	R3,A
	CLR  	A
	SUBB 	A,CHAR_W?1498
	MOV  	R2,A
	SETB 	C
	MOV  	A,R7
	SUBB 	A,R3
	MOV  	A,R6
	SUBB 	A,R2
	JC   	$ + 5H
	LJMP 	?C0090
	CLR  	C
	MOV  	A,#040H
	SUBB 	A,CHAR_H?1499+01H
	MOV  	R3,A
	MOV  	A,#01H
	SUBB 	A,CHAR_H?1499
	MOV  	R2,A
	SETB 	C
	MOV  	A,R5
	SUBB 	A,R3
	MOV  	A,R4
	SUBB 	A,R2
	JC   	$ + 5H
	LJMP 	?C0090
?C0088:
;         return;
;    
;     Address_set(x, y, x+CHAR_W-1, y+CHAR_H-1);
			; SOURCE LINE # 377
	MOV  	A,CHAR_W?1498+01H
	ADD  	A,R7
	XCH  	A,R3
	MOV  	A,CHAR_W?1498
	ADDC 	A,R6
	XCH  	A,R3
	ADD  	A,#0FFH
	XCH  	A,R3
	ADDC 	A,#0FFH
	MOV  	R2,A
	MOV  	A,CHAR_H?1499+01H
	ADD  	A,R5
	MOV  	DPL,A
	MOV  	A,CHAR_H?1499
	ADDC 	A,R4
	MOV  	DPH,A
	MOV  	A,DPL
	ADD  	A,#0FFH
	MOV  	?_Address_set?BYTE+07H,A
	MOV  	A,DPH
	ADDC 	A,#0FFH
	MOV  	?_Address_set?BYTE+06H,A
	LCALL	_Address_set
;     ch = ch-32;                       //ASCII
			; SOURCE LINE # 378
	MOV  	A,#0E0H
	ADD  	A,ch?1493
	MOV  	ch?1493,A
;     Bytes = (CHAR_W*CHAR_H)/8;
			; SOURCE LINE # 379
	MOV  	R4,CHAR_H?1499
	MOV  	R5,CHAR_H?1499+01H
	MOV  	R6,CHAR_W?1498
	MOV  	R7,CHAR_W?1498+01H
	LCALL	?C?IMUL
	MOV  	A,R7
	MOV  	R0,#03H
?C0117:
	XCH  	A,R6
	CLR  	C
	RRC  	A
	XCH  	A,R6
	RRC  	A
	DJNZ 	R0,?C0117
;---- Variable 'Bytes?1495' assigned to Register 'R1' ----
	MOV  	R1,A
;     for(pos=0;pos<Bytes;pos++)  //CHAR_H 	(CHAR_W*CHAR_H)/8
			; SOURCE LINE # 380
;---- Variable 'pos?1496' assigned to Register 'R4' ----
	CLR  	A
	MOV  	R4,A
?C0091:
	MOV  	A,R4
	CLR  	C
	SUBB 	A,R1
	JNC  	?C0090
;     {
			; SOURCE LINE # 381
;         //temp= Font8x16[ch][pos];
;         //temp= Font16x24[ch][pos];
;         temp= Font16x24[ch][pos];
			; SOURCE LINE # 384
	MOV  	R7,ch?1493
	MOV  	A,R7
	RLC  	A
	SUBB 	A,ACC
	MOV  	R6,A
	MOV  	DPTR,#Font16x24
	MOV  	B,#030H
	MOV  	A,R7
	LCALL	?C?OFFXADD
	MOV  	A,R6
	MOV  	B,#030H
	MUL  	AB
	ADD  	A,DPH
	MOV  	DPH,A
	MOV  	A,DPL
	ADD  	A,R4
	MOV  	DPL,A
	CLR  	A
	ADDC 	A,DPH
	MOV  	DPH,A
	CLR  	A
	MOVC 	A,@A+DPTR
;---- Variable 'temp?1494' assigned to Register 'R3' ----
	MOV  	R3,A
;       
;         for(t=0;t<8;t++) //CHAR_W
			; SOURCE LINE # 386
;---- Variable 't?1497' assigned to Register 'R2' ----
	CLR  	A
	MOV  	R2,A
?C0094:
;         {                 
			; SOURCE LINE # 387
; 	       if(temp&0x80)
			; SOURCE LINE # 388
	MOV  	A,R3
	JNB  	ACC.7,?C0097
; 	           LCD_Write_DATA(For_color>>8 , For_color  );  //textcolor
			; SOURCE LINE # 389
	MOV  	A,For_color?1491
	MOV  	R7,A
	MOV  	R5,For_color?1491+01H
	SJMP 	?C0120
?C0097:
; 	       else 
; 	           LCD_Write_DATA(Bk_color>>8 , Bk_color );  //backcolor
			; SOURCE LINE # 391
	MOV  	A,Bk_color?1492
	MOV  	R7,A
	MOV  	R5,Bk_color?1492+01H
?C0120:
	LCALL	_LCD_Write_DATA
?C0098:
;             temp<<=1; 
			; SOURCE LINE # 392
	MOV  	A,R3
	ADD  	A,ACC
	MOV  	R3,A
;         }
			; SOURCE LINE # 393
	INC  	R2
	CJNE 	R2,#08H,?C0094
;     }
			; SOURCE LINE # 394
?C0093:
	INC  	R4
	SJMP 	?C0091
; }  
			; SOURCE LINE # 395
?C0090:
	RET  	
; END OF _LCD_ShowChar

; //******************************************************************
; //      x,y:    *p:
; //------------------------------------------------------------------
; void LCD_ShowString(uint x,uint y,uint For_color,uint Bk_color,char *p)

	RSEG  ?PR?_LCD_ShowString?S6D0154
_LCD_ShowString:
	USING	0
			; SOURCE LINE # 399
	MOV  	x?15100,R6
	MOV  	x?15100+01H,R7
	MOV  	y?15101,R4
	MOV  	y?15101+01H,R5
	MOV  	For_color?15102,R2
	MOV  	For_color?15102+01H,R3
; {         
			; SOURCE LINE # 400
?C0099:
;     while(*p!='\0')
			; SOURCE LINE # 401
	MOV  	R3,p?15104
	MOV  	R2,p?15104+01H
	MOV  	R1,p?15104+02H
	LCALL	?C?CLDPTR
	MOV  	R1,A
	JZ   	?C0101
;     {       
			; SOURCE LINE # 402
;         LCD_ShowChar(x,y,For_color,Bk_color,*p);
			; SOURCE LINE # 403
	MOV  	?_LCD_ShowChar?BYTE+06H,Bk_color?15103
	MOV  	?_LCD_ShowChar?BYTE+07H,Bk_color?15103+01H
	MOV  	?_LCD_ShowChar?BYTE+08H,A
	MOV  	R3,For_color?15102+01H
	MOV  	R2,For_color?15102
	MOV  	R5,y?15101+01H
	MOV  	R4,y?15101
	MOV  	R7,x?15100+01H
	MOV  	R6,x?15100
	LCALL	_LCD_ShowChar
;         //x+=8;
;         x+=16;
			; SOURCE LINE # 405
	MOV  	A,#010H
	ADD  	A,x?15100+01H
	MOV  	x?15100+01H,A
	CLR  	A
	ADDC 	A,x?15100
	MOV  	x?15100,A
;         p++;
			; SOURCE LINE # 406
	MOV  	A,#01H
	ADD  	A,p?15104+02H
	MOV  	p?15104+02H,A
	CLR  	A
	ADDC 	A,p?15104+01H
	MOV  	p?15104+01H,A
;     }
			; SOURCE LINE # 407
	SJMP 	?C0099
; }
			; SOURCE LINE # 408
?C0101:
	RET  	
; END OF _LCD_ShowString

; //******************************************************************
; //  
; //------------------------------------------------------------------
; void LCD_Init(void)

	RSEG  ?PR?LCD_Init?S6D0154
LCD_Init:
	USING	0
			; SOURCE LINE # 412
; {
			; SOURCE LINE # 413
; //    LCD_RST=1;
; //    delayms(5);
; 	LCD_RST=0;
			; SOURCE LINE # 416
	CLR  	LCD_RST
; 	delayms(5);
			; SOURCE LINE # 417
	MOV  	R7,#05H
	MOV  	R6,#00H
	LCALL	_delayms
; 	LCD_RST=1;
			; SOURCE LINE # 418
	SETB 	LCD_RST
; //	delayms(5);
; 	LCD_CS =0;  //
			; SOURCE LINE # 420
	CLR  	LCD_CS
;     //---------------------------------
; 	LCD_Write_COM(0x00,0x10); LCD_Write_DATA(0x00,0x00);  // Power Control 1  current consumption  STB
			; SOURCE LINE # 422
	MOV  	R5,#010H
	CLR  	A
	LCALL	L?0130
; 	delayms(10);
			; SOURCE LINE # 423
	MOV  	R7,#0AH
	MOV  	R6,A
; 	
; 	LCD_Write_COM(0x00,0x11); LCD_Write_DATA(0x00,0x1c);  // Power Control 2
			; SOURCE LINE # 425
	LCALL	L?0126
	MOV  	R5,#01CH
	LCALL	_LCD_Write_DATA
; 	LCD_Write_COM(0x00,0x12); LCD_Write_DATA(0x12,0x12);  // Power Control 3  BT2-0, DC11-10, DC21-20, DC31-30
			; SOURCE LINE # 426
	MOV  	R5,#012H
	LCALL	_LCD_Write_COM
	MOV  	R7,#012H
	LCALL	_LCD_Write_DATA
; 	LCD_Write_COM(0x00,0x13); LCD_Write_DATA(0x00,0x41);  // Power Control 4  DCR_EX=0, DCR2-0, GVD6-0
			; SOURCE LINE # 427
	INC  	R5
	MOV  	R7,A
	LCALL	_LCD_Write_COM
	MOV  	R5,#041H
	LCALL	_LCD_Write_DATA
; 	LCD_Write_COM(0x00,0x14); LCD_Write_DATA(0x40,0x50);  // Power Control 5  VCOMG=0, VCM6-0, VCMR=0, VML6-0
			; SOURCE LINE # 428
	MOV  	R5,#014H
	LCALL	_LCD_Write_COM
	MOV  	R5,#050H
	MOV  	R7,#040H
	LCALL	_LCD_Write_DATA
; 	LCD_Write_COM(0x00,0x10); LCD_Write_DATA(0x08,0x00);  // Power Control 1 
			; SOURCE LINE # 429
	MOV  	R5,#010H
	MOV  	R7,A
	LCALL	_LCD_Write_COM
	MOV  	R5,A
	MOV  	R7,#08H
	LCALL	_LCD_Write_DATA
; 	LCD_Write_COM(0x00,0x11); LCD_Write_DATA(0x01,0x1c);  // Power Control 2
			; SOURCE LINE # 430
	MOV  	R5,#011H
	MOV  	R7,A
	LCALL	_LCD_Write_COM
	INC  	R7
; 	delayms(300);//300ms
			; SOURCE LINE # 431
; 	LCD_Write_COM(0x00,0x11); LCD_Write_DATA(0x03,0x1c);  // Power Control 2
			; SOURCE LINE # 432
	LCALL	L?0124
	MOV  	R7,#03H
; 	delayms(300);//300ms
			; SOURCE LINE # 433
; 	LCD_Write_COM(0x00,0x11); LCD_Write_DATA(0x07,0x1c);  // Power Control 2
			; SOURCE LINE # 434
	LCALL	L?0124
	MOV  	R5,#01CH
	MOV  	R7,#07H
; 	delayms(300);//300ms
			; SOURCE LINE # 435
; 	LCD_Write_COM(0x00,0x11); LCD_Write_DATA(0x0f,0x1c);  // Power Control 2
			; SOURCE LINE # 436
	LCALL	L?0125
	MOV  	R5,#01CH
	MOV  	R7,#0FH
	LCALL	_LCD_Write_DATA
; 	delayms(600);//600ms
			; SOURCE LINE # 437
	MOV  	R7,#058H
	MOV  	R6,#02H
; 	LCD_Write_COM(0x00,0x11); LCD_Write_DATA(0x0f,0x39);  // Power Control 2
			; SOURCE LINE # 438
	LCALL	L?0126
	MOV  	R5,#039H
	MOV  	R7,#0FH
	LCALL	_LCD_Write_DATA
; 	delayms(500);//500ms
			; SOURCE LINE # 439
	MOV  	R7,#0F4H
	MOV  	R6,#01H
	LCALL	_delayms
; 	LCD_Write_COM(0x00,0x01); LCD_Write_DATA(0x01,0x28);  // Driver Output Control
			; SOURCE LINE # 440
	MOV  	R5,#01H
	CLR  	A
	MOV  	R7,A
	LCALL	_LCD_Write_COM
	MOV  	R5,#028H
	INC  	R7
	LCALL	_LCD_Write_DATA
; 	LCD_Write_COM(0x00,0x02); LCD_Write_DATA(0x01,0x00);  // LCD-Driving-Waveform Control
			; SOURCE LINE # 441
	MOV  	R5,#02H
	DEC  	R7
	LCALL	_LCD_Write_COM
	MOV  	R5,A
	INC  	R7
	LCALL	_LCD_Write_DATA
; 	LCD_Write_COM(0x00,0x03); LCD_Write_DATA(0x10,0x30);  // Entry Mode
			; SOURCE LINE # 442
	MOV  	R5,#03H
	DEC  	R7
	LCALL	_LCD_Write_COM
	MOV  	R5,#030H
	MOV  	R7,#010H
	LCALL	_LCD_Write_DATA
; 	LCD_Write_COM(0x00,0x08); LCD_Write_DATA(0x08,0x08);  // Frame Cycle Control 
			; SOURCE LINE # 443
	MOV  	R5,#08H
	MOV  	R7,A
	LCALL	_LCD_Write_COM
	MOV  	R7,#08H
	LCALL	_LCD_Write_DATA
; 	LCD_Write_COM(0x00,0x0b); LCD_Write_DATA(0x11,0x05);  // Frame Cycle Control
			; SOURCE LINE # 444
	MOV  	R5,#0BH
	MOV  	R7,A
	LCALL	_LCD_Write_COM
	MOV  	R5,#05H
	MOV  	R7,#011H
	LCALL	_LCD_Write_DATA
; 	LCD_Write_COM(0x00,0x0c); LCD_Write_DATA(0x00,0x00);  // External Display Interface Control 
			; SOURCE LINE # 445
	MOV  	R5,#0CH
	LCALL	L?0130
;     //---------------------------------
;     LCD_Write_COM(0x00,0x15); LCD_Write_DATA(0x00,0x20);  //VCI Recycling (R15H)		//		VCIR=010	 0X0020
			; SOURCE LINE # 447
	MOV  	R5,#015H
	LCALL	_LCD_Write_COM
	MOV  	R5,#020H
	LCALL	_LCD_Write_DATA
; 	LCD_Write_COM(0x00,0x30); LCD_Write_DATA(0x00,0x00);  //		SCN 0	Start from G1
			; SOURCE LINE # 448
	MOV  	R5,#030H
	LCALL	L?0132
; 	LCD_Write_COM(0x00,0x34); LCD_Write_DATA(0x01,0x3f);  //		SE1 = 100111111( 319)
			; SOURCE LINE # 449
	MOV  	R5,#034H
	LCALL	_LCD_Write_COM
	MOV  	R5,#03FH
	INC  	R7
	LCALL	_LCD_Write_DATA
; 	LCD_Write_COM(0x00,0x35); LCD_Write_DATA(0x00,0x00);  //		SS1 = 000000000
			; SOURCE LINE # 450
	MOV  	R5,#035H
	DEC  	R7
	LCALL	L?0132
; 	LCD_Write_COM(0x00,0x36); LCD_Write_DATA(0x00,0xef);  //		HEA = 011101111(239)
			; SOURCE LINE # 451
	MOV  	R5,#036H
	LCALL	_LCD_Write_COM
	MOV  	R5,#0EFH
	LCALL	_LCD_Write_DATA
; 	LCD_Write_COM(0x00,0x37); LCD_Write_DATA(0x00,0x00);  //		HSA = 000000000	
			; SOURCE LINE # 452
	MOV  	R5,#037H
	LCALL	L?0132
; 	LCD_Write_COM(0x00,0x38); LCD_Write_DATA(0x01,0x3f);  //		VEA = 100111111( 319)
			; SOURCE LINE # 453
	MOV  	R5,#038H
	LCALL	_LCD_Write_COM
	MOV  	R5,#03FH
	INC  	R7
	LCALL	_LCD_Write_DATA
;     LCD_Write_COM(0x00,0x39); LCD_Write_DATA(0x00,0x00);  //		VSA = 000000000	
			; SOURCE LINE # 454
	MOV  	R5,#039H
	DEC  	R7
	LCALL	L?0132
;     LCD_Write_COM(0x00,0x50); LCD_Write_DATA(0x01,0x01);  // Gamma Control
			; SOURCE LINE # 455
	MOV  	R5,#050H
	LCALL	_LCD_Write_COM
	MOV  	R5,#01H
	INC  	R7
	LCALL	_LCD_Write_DATA
;     //---------------------------------
; 	LCD_Write_COM(0x00,0x51); LCD_Write_DATA(0x09,0x03);
			; SOURCE LINE # 457
	MOV  	R5,#051H
	DEC  	R7
	LCALL	_LCD_Write_COM
	MOV  	R5,#03H
	MOV  	R7,#09H
	LCALL	_LCD_Write_DATA
; 	LCD_Write_COM(0x00,0x52); LCD_Write_DATA(0x0b,0x08);
			; SOURCE LINE # 458
	MOV  	R5,#052H
	MOV  	R7,A
	LCALL	_LCD_Write_COM
	MOV  	R5,#08H
	MOV  	R7,#0BH
	LCALL	_LCD_Write_DATA
; 	LCD_Write_COM(0x00,0x53); LCD_Write_DATA(0x08,0x05);
			; SOURCE LINE # 459
	MOV  	R5,#053H
	MOV  	R7,A
	LCALL	_LCD_Write_COM
	MOV  	R5,#05H
	MOV  	R7,#08H
	LCALL	_LCD_Write_DATA
; 	LCD_Write_COM(0x00,0x54); LCD_Write_DATA(0x01,0x01);
			; SOURCE LINE # 460
	MOV  	R5,#054H
	MOV  	R7,A
	LCALL	_LCD_Write_COM
	MOV  	R5,#01H
	INC  	R7
	LCALL	_LCD_Write_DATA
; 	LCD_Write_COM(0x00,0x55); LCD_Write_DATA(0x0d,0x06);
			; SOURCE LINE # 461
	MOV  	R5,#055H
	DEC  	R7
	LCALL	_LCD_Write_COM
	MOV  	R5,#06H
	MOV  	R7,#0DH
	LCALL	_LCD_Write_DATA
; 	LCD_Write_COM(0x00,0x56); LCD_Write_DATA(0x0e,0x0a);
			; SOURCE LINE # 462
	MOV  	R5,#056H
	MOV  	R7,A
	LCALL	_LCD_Write_COM
	MOV  	R5,#0AH
	MOV  	R7,#0EH
	LCALL	_LCD_Write_DATA
; 	LCD_Write_COM(0x00,0x57); LCD_Write_DATA(0x01,0x00);
			; SOURCE LINE # 463
	MOV  	R5,#057H
	MOV  	R7,A
	LCALL	_LCD_Write_COM
	MOV  	R5,A
	INC  	R7
	LCALL	_LCD_Write_DATA
; 	LCD_Write_COM(0x00,0x58); LCD_Write_DATA(0x1f,0x0b);
			; SOURCE LINE # 464
	MOV  	R5,#058H
	DEC  	R7
	LCALL	_LCD_Write_COM
	MOV  	R5,#0BH
	MOV  	R7,#01FH
	LCALL	_LCD_Write_DATA
; 	LCD_Write_COM(0x00,0x59); LCD_Write_DATA(0x02,0x01);
			; SOURCE LINE # 465
	MOV  	R5,#059H
	MOV  	R7,A
	LCALL	_LCD_Write_COM
	MOV  	R5,#01H
	MOV  	R7,#02H
	LCALL	_LCD_Write_DATA
; 	//---------------------------------
; 	LCD_Write_COM(0x00,0x20); LCD_Write_DATA(0x00,0x00);  //Set RAM Address
			; SOURCE LINE # 467
	MOV  	R5,#020H
	LCALL	L?0131
; 	LCD_Write_COM(0x00,0x21); LCD_Write_DATA(0x00,0x00);  //Set RAM Address
			; SOURCE LINE # 468
	MOV  	R5,#021H
	LCALL	L?0132
; 	//0x22		  RAM Data Write
; 	//LCD_CtrlWrite(0x0022);
; 	LCD_Write_COM(0x00,0x0f); LCD_Write_DATA(0x1f,0x01);  // Start Oscillation
			; SOURCE LINE # 471
	MOV  	R5,#0FH
	LCALL	_LCD_Write_COM
	MOV  	R5,#01H
	MOV  	R7,#01FH
	LCALL	_LCD_Write_DATA
; 	delayms(300);//300ms
			; SOURCE LINE # 472
	MOV  	R7,#02CH
	MOV  	R6,#01H
	LCALL	_delayms
; 	LCD_Write_COM(0x00,0x07); LCD_Write_DATA(0x00,0x16);  // Display Control
			; SOURCE LINE # 473
	MOV  	R5,#07H
	CLR  	A
	MOV  	R7,A
	LCALL	_LCD_Write_COM
	MOV  	R5,#016H
	LCALL	_LCD_Write_DATA
; 	delayms(200);//200ms
			; SOURCE LINE # 474
	MOV  	R7,#0C8H
	MOV  	R6,A
	LCALL	_delayms
; 	LCD_Write_COM(0x00,0x07); LCD_Write_DATA(0x00,0x17);
			; SOURCE LINE # 475
	MOV  	R5,#07H
	CLR  	A
	MOV  	R7,A
	LCALL	_LCD_Write_COM
	MOV  	R5,#017H
	LCALL	_LCD_Write_DATA
; 	//---------------------------------
; 	LCD_CS =1;
			; SOURCE LINE # 477
	SETB 	LCD_CS
; }
			; SOURCE LINE # 478
	RET  	
; END OF LCD_Init

	END
